(lp0
(lp1
S''
p2
aI0
aa(lp3
S'clockstopp'
p4
aF0.00012106903961984322
aa(lp5
S'smash'
p6
aF6.053451980992161e-05
aa(lp7
S'disabl'
p8
aF3.0267259904960804e-05
aa(lp9
S'final'
p10
aF0.0005750779381942553
aa(lp11
S'insuffer'
p12
aF0.00012106903961984322
aa(lp13
S'insuffer'
p14
aF0.00012106903961984322
aa(lp15
S'dozen'
p16
aF6.053451980992161e-05
aa(lp17
S'peplo'
p18
aF3.0267259904960804e-05
aa(lp19
S'fewer'
p20
aF6.053451980992161e-05
aa(lp21
S'sub-formula'
p22
aF3.0267259904960804e-05
aa(lp23
S'small-town'
p24
aF3.0267259904960804e-05
aa(lp25
S'troubl'
p26
aF0.00024213807923968643
aa(lp27
S'coburn'
p28
aF3.0267259904960804e-05
aa(lp29
S'nymphett'
p30
aF3.0267259904960804e-05
aa(lp31
S'shoulder'
p32
aF9.080177971488241e-05
aa(lp33
S'pauli'
p34
aF3.0267259904960804e-05
aa(lp35
S'muse'
p36
aF6.053451980992161e-05
aa(lp37
S'gibberish'
p38
aF3.0267259904960804e-05
aa(lp39
S'whini'
p40
aF9.080177971488241e-05
aa(lp41
S'devious'
p42
aF3.0267259904960804e-05
aa(lp43
S'defens'
p44
aF3.0267259904960804e-05
aa(lp45
S'fai'
p46
aF3.0267259904960804e-05
aa(lp47
S'advanc'
p48
aF6.053451980992161e-05
aa(lp49
S'retold'
p50
aF3.0267259904960804e-05
aa(lp51
S'load'
p52
aF0.00012106903961984322
aa(lp53
S'ancillari'
p54
aF3.0267259904960804e-05
aa(lp55
S'viterelli'
p56
aF3.0267259904960804e-05
aa(lp57
S'cherish'
p58
aF6.053451980992161e-05
aa(lp59
S'eisenstein'
p60
aF6.053451980992161e-05
aa(lp61
S'spark'
p62
aF0.00018160355942976482
aa(lp63
S'desir'
p64
aF0.00018160355942976482
aa(lp65
S'formula'
p66
aF0.0005448106782892945
aa(lp67
S'advantag'
p68
aF6.053451980992161e-05
aa(lp69
S'weight'
p70
aF0.00018160355942976482
aa(lp71
S'backward'
p72
aF3.0267259904960804e-05
aa(lp73
S'hallmark'
p74
aF0.000151336299524804
aa(lp75
S'traffic'
p76
aF6.053451980992161e-05
aa(lp77
S'clint'
p78
aF3.0267259904960804e-05
aa(lp79
S'contrast'
p80
aF6.053451980992161e-05
aa(lp81
S'privat'
p82
aF9.080177971488241e-05
aa(lp83
S'elm'
p84
aF3.0267259904960804e-05
aa(lp85
S'hardass'
p86
aF3.0267259904960804e-05
aa(lp87
S'verismo'
p88
aF3.0267259904960804e-05
aa(lp89
S'bombard'
p90
aF3.0267259904960804e-05
aa(lp91
S'kumbl'
p92
aF3.0267259904960804e-05
aa(lp93
S"''"
p94
aF0.0019371046339174915
aa(lp95
S'eager'
p96
aF9.080177971488241e-05
aa(lp97
S'imit'
p98
aF0.00027240533914464724
aa(lp99
S'cow'
p100
aF6.053451980992161e-05
aa(lp101
S'suit'
p102
aF0.00021187081933472562
aa(lp103
S'disabl'
p104
aF3.0267259904960804e-05
aa(lp105
S'vulner'
p106
aF6.053451980992161e-05
aa(lp107
S"'d"
p108
aF0.00039347437876449047
aa(lp109
S'follow'
p110
aF0.00027240533914464724
aa(lp111
S'imit'
p112
aF0.00027240533914464724
aa(lp113
S'gener'
p114
aF0.0006961469778140985
aa(lp115
S'suey'
p116
aF3.0267259904960804e-05
aa(lp117
S"'n"
p118
aF3.0267259904960804e-05
aa(lp119
S'result'
p120
aF0.00033293985895456885
aa(lp121
S'pyrotechn'
p122
aF6.053451980992161e-05
aa(lp123
S'rel'
p124
aF0.00012106903961984322
aa(lp125
S'not-too-dist'
p126
aF3.0267259904960804e-05
aa(lp127
S'paunchi'
p128
aF3.0267259904960804e-05
aa(lp129
S'indiffer'
p130
aF6.053451980992161e-05
aa(lp131
S'highland'
p132
aF3.0267259904960804e-05
aa(lp133
S'stuffi'
p134
aF6.053451980992161e-05
aa(lp135
S'bodice-ripp'
p136
aF6.053451980992161e-05
aa(lp137
S'stare'
p138
aF6.053451980992161e-05
aa(lp139
S'tiresom'
p140
aF0.00018160355942976482
aa(lp141
S'twelv'
p142
aF3.0267259904960804e-05
aa(lp143
S'figur'
p144
aF0.00024213807923968643
aa(lp145
S'pin'
p146
aF3.0267259904960804e-05
aa(lp147
S'seller'
p148
aF6.053451980992161e-05
aa(lp149
S'kimmel'
p150
aF3.0267259904960804e-05
aa(lp151
S'gener'
p152
aF0.0006961469778140985
aa(lp153
S'waterlog'
p154
aF6.053451980992161e-05
aa(lp155
S'gener'
p156
aF0.0006961469778140985
aa(lp157
S'75'
p158
aF3.0267259904960804e-05
aa(lp159
S'4w'
p160
aF3.0267259904960804e-05
aa(lp161
S'straddl'
p162
aF3.0267259904960804e-05
aa(lp163
S'48'
p164
aF3.0267259904960804e-05
aa(lp165
S'crucial'
p166
aF6.053451980992161e-05
aa(lp167
S'relish'
p168
aF3.0267259904960804e-05
aa(lp169
S'imbecil'
p170
aF3.0267259904960804e-05
aa(lp171
S'94'
p172
aF3.0267259904960804e-05
aa(lp173
S'stud'
p174
aF3.0267259904960804e-05
aa(lp175
S'shadyac'
p176
aF9.080177971488241e-05
aa(lp177
S'stay'
p178
aF0.00024213807923968643
aa(lp179
S'bulli'
p180
aF3.0267259904960804e-05
aa(lp181
S'burr'
p182
aF6.053451980992161e-05
aa(lp183
S'charad'
p184
aF6.053451980992161e-05
aa(lp185
S'rule'
p186
aF9.080177971488241e-05
aa(lp187
S'jar'
p188
aF0.00012106903961984322
aa(lp189
S'moron'
p190
aF6.053451980992161e-05
aa(lp191
S'wrath'
p192
aF3.0267259904960804e-05
aa(lp193
S'sillifi'
p194
aF3.0267259904960804e-05
aa(lp195
S'lard'
p196
aF3.0267259904960804e-05
aa(lp197
S'resembl'
p198
aF0.00018160355942976482
aa(lp199
S'cranki'
p200
aF3.0267259904960804e-05
aa(lp201
S'aesthet'
p202
aF6.053451980992161e-05
aa(lp203
S'hole'
p204
aF0.00021187081933472562
aa(lp205
S'test'
p206
aF0.000151336299524804
aa(lp207
S'bo'
p208
aF3.0267259904960804e-05
aa(lp209
S'bigger-nam'
p210
aF3.0267259904960804e-05
aa(lp211
S'nag'
p212
aF3.0267259904960804e-05
aa(lp213
S'authent'
p214
aF0.00012106903961984322
aa(lp215
S'sanitis'
p216
aF3.0267259904960804e-05
aa(lp217
S'giler'
p218
aF3.0267259904960804e-05
aa(lp219
S'unless'
p220
aF0.000151336299524804
aa(lp221
S'stay'
p222
aF0.00024213807923968643
aa(lp223
S'star'
p224
aF0.000605345198099216
aa(lp225
S'hey'
p226
aF6.053451980992161e-05
aa(lp227
S'stab'
p228
aF3.0267259904960804e-05
aa(lp229
S'pa'
p230
aF3.0267259904960804e-05
aa(lp231
S'pb'
p232
aF3.0267259904960804e-05
aa(lp233
S'ii'
p234
aF0.00024213807923968643
aa(lp235
S'onto'
p236
aF0.00012106903961984322
aa(lp237
S'afghan'
p238
aF3.0267259904960804e-05
aa(lp239
S'k.'
p240
aF3.0267259904960804e-05
aa(lp241
S'ka'
p242
aF3.0267259904960804e-05
aa(lp243
S'w.'
p244
aF3.0267259904960804e-05
aa(lp245
S'rise'
p246
aF0.00027240533914464724
aa(lp247
S'greenlight'
p248
aF3.0267259904960804e-05
aa(lp249
S'tv'
p250
aF0.00042374163866945125
aa(lp251
S'dress'
p252
aF9.080177971488241e-05
aa(lp253
S'repeat'
p254
aF9.080177971488241e-05
aa(lp255
S'chicken'
p256
aF6.053451980992161e-05
aa(lp257
S'disquietingli'
p258
aF3.0267259904960804e-05
aa(lp259
S'histrion'
p260
aF6.053451980992161e-05
aa(lp261
S'feminist'
p262
aF3.0267259904960804e-05
aa(lp263
S'enact'
p264
aF9.080177971488241e-05
aa(lp265
S'glucos'
p266
aF3.0267259904960804e-05
aa(lp267
S'estrang'
p268
aF3.0267259904960804e-05
aa(lp269
S'emul'
p270
aF3.0267259904960804e-05
aa(lp271
S'alien'
p272
aF0.00024213807923968643
aa(lp273
S'loquaci'
p274
aF3.0267259904960804e-05
aa(lp275
S'bermuda'
p276
aF3.0267259904960804e-05
aa(lp277
S'yi'
p278
aF6.053451980992161e-05
aa(lp279
S'tinni'
p280
aF3.0267259904960804e-05
aa(lp281
S'yu'
p282
aF9.080177971488241e-05
aa(lp283
S'insinu'
p284
aF3.0267259904960804e-05
aa(lp285
S'fumbl'
p286
aF6.053451980992161e-05
aa(lp287
S'\\/'
p288
aF0.000151336299524804
aa(lp289
S'girlish'
p290
aF3.0267259904960804e-05
aa(lp291
S'standup'
p292
aF3.0267259904960804e-05
aa(lp293
S'frontal'
p294
aF9.080177971488241e-05
aa(lp295
S'sustain'
p296
aF0.00024213807923968643
aa(lp297
S'tear-stain'
p298
aF3.0267259904960804e-05
aa(lp299
S'et'
p300
aF6.053451980992161e-05
aa(lp301
S'wallet'
p302
aF9.080177971488241e-05
aa(lp303
S'instal'
p304
aF9.080177971488241e-05
aa(lp305
S'upstag'
p306
aF3.0267259904960804e-05
aa(lp307
S'mysteri'
p308
aF0.00033293985895456885
aa(lp309
S'lighter'
p310
aF3.0267259904960804e-05
aa(lp311
S'``'
p312
aF0.0019371046339174915
aa(lp313
S'cram'
p314
aF6.053451980992161e-05
aa(lp315
S'california'
p316
aF3.0267259904960804e-05
aa(lp317
S'cutoff'
p318
aF3.0267259904960804e-05
aa(lp319
S'oo'
p320
aF3.0267259904960804e-05
aa(lp321
S'ill-wrought'
p322
aF3.0267259904960804e-05
aa(lp323
S'listless'
p324
aF0.000151336299524804
aa(lp325
S'water'
p326
aF0.00021187081933472562
aa(lp327
S'propos'
p328
aF6.053451980992161e-05
aa(lp329
S'outrag'
p330
aF0.000151336299524804
aa(lp331
S'self-import'
p332
aF6.053451980992161e-05
aa(lp333
S'scooter'
p334
aF3.0267259904960804e-05
aa(lp335
S'endur'
p336
aF0.00012106903961984322
aa(lp337
S'obscen'
p338
aF3.0267259904960804e-05
aa(lp339
S'nickelodeon-esqu'
p340
aF3.0267259904960804e-05
aa(lp341
S'interchang'
p342
aF3.0267259904960804e-05
aa(lp343
S'strain'
p344
aF0.00018160355942976482
aa(lp345
S'devolv'
p346
aF9.080177971488241e-05
aa(lp347
S'slack'
p348
aF0.00012106903961984322
aa(lp349
S'expir'
p350
aF3.0267259904960804e-05
aa(lp351
S'cool-j'
p352
aF3.0267259904960804e-05
aa(lp353
S'bland'
p354
aF0.0005448106782892945
aa(lp355
S'gadzook'
p356
aF3.0267259904960804e-05
aa(lp357
S'ut'
p358
aF3.0267259904960804e-05
aa(lp359
S'tv'
p360
aF0.00042374163866945125
aa(lp361
S'messeng'
p362
aF3.0267259904960804e-05
aa(lp363
S're'
p364
aF3.0267259904960804e-05
aa(lp365
S'problemat'
p366
aF6.053451980992161e-05
aa(lp367
S'institut'
p368
aF3.0267259904960804e-05
aa(lp369
S'abid'
p370
aF3.0267259904960804e-05
aa(lp371
S'smuggl'
p372
aF3.0267259904960804e-05
aa(lp373
S'appli'
p374
aF9.080177971488241e-05
aa(lp375
S'holiday-season'
p376
aF3.0267259904960804e-05
aa(lp377
S'tap-danc'
p378
aF3.0267259904960804e-05
aa(lp379
S'chainsaw'
p380
aF3.0267259904960804e-05
aa(lp381
S'wend'
p382
aF3.0267259904960804e-05
aa(lp383
S'squander'
p384
aF0.00018160355942976482
aa(lp385
S'night'
p386
aF0.00021187081933472562
aa(lp387
S'crossing-ov'
p388
aF3.0267259904960804e-05
aa(lp389
S'appli'
p390
aF9.080177971488241e-05
aa(lp391
S'presid'
p392
aF3.0267259904960804e-05
aa(lp393
S'extra-dri'
p394
aF3.0267259904960804e-05
aa(lp395
S'windtalk'
p396
aF0.00012106903961984322
aa(lp397
S'wheel'
p398
aF3.0267259904960804e-05
aa(lp399
S'imit'
p400
aF0.00027240533914464724
aa(lp401
S'underwat'
p402
aF3.0267259904960804e-05
aa(lp403
S'adventu'
p404
aF3.0267259904960804e-05
aa(lp405
S'queasy-stomach'
p406
aF3.0267259904960804e-05
aa(lp407
S'insid'
p408
aF0.00027240533914464724
aa(lp409
S'as-it'
p410
aF3.0267259904960804e-05
aa(lp411
S'obviou'
p412
aF0.00039347437876449047
aa(lp413
S'echo'
p414
aF6.053451980992161e-05
aa(lp415
S'thinli'
p416
aF6.053451980992161e-05
aa(lp417
S'built'
p418
aF0.00012106903961984322
aa(lp419
S'fineri'
p420
aF3.0267259904960804e-05
aa(lp421
S'potboil'
p422
aF6.053451980992161e-05
aa(lp423
S'better'
p424
aF0.001240957656103393
aa(lp425
S'retreat'
p426
aF6.053451980992161e-05
aa(lp427
S'undisput'
p428
aF3.0267259904960804e-05
aa(lp429
S'shake'
p430
aF0.000151336299524804
aa(lp431
S'in-jokey'
p432
aF3.0267259904960804e-05
aa(lp433
S'sentiment'
p434
aF0.0004540088985744121
aa(lp435
S'in-jok'
p436
aF3.0267259904960804e-05
aa(lp437
S'deposit'
p438
aF3.0267259904960804e-05
aa(lp439
S'auster'
p440
aF3.0267259904960804e-05
aa(lp441
S'out'
p442
aF0.002330579012681982
aa(lp443
S'stay'
p444
aF0.00024213807923968643
aa(lp445
S'extract'
p446
aF3.0267259904960804e-05
aa(lp447
S'saddl'
p448
aF6.053451980992161e-05
aa(lp449
S'ensu'
p450
aF3.0267259904960804e-05
aa(lp451
S'stare'
p452
aF6.053451980992161e-05
aa(lp453
S'start'
p454
aF0.000605345198099216
aa(lp455
S'star'
p456
aF0.000605345198099216
aa(lp457
S'save'
p458
aF0.000302672599049608
aa(lp459
S'underscor'
p460
aF6.053451980992161e-05
aa(lp461
S'rehash'
p462
aF0.00012106903961984322
aa(lp463
S'hawaiian'
p464
aF9.080177971488241e-05
aa(lp465
S'injuri'
p466
aF3.0267259904960804e-05
aa(lp467
S'outtak'
p468
aF3.0267259904960804e-05
aa(lp469
S'crush'
p470
aF0.00021187081933472562
aa(lp471
S'kick'
p472
aF0.00021187081933472562
aa(lp473
S'bombast'
p474
aF3.0267259904960804e-05
aa(lp475
S'occasion'
p476
aF0.00033293985895456885
aa(lp477
S'ahola'
p478
aF6.053451980992161e-05
aa(lp479
S'alcatraz'
p480
aF3.0267259904960804e-05
aa(lp481
S'112-minut'
p482
aF3.0267259904960804e-05
aa(lp483
S'misconceiv'
p484
aF3.0267259904960804e-05
aa(lp485
S'screed'
p486
aF3.0267259904960804e-05
aa(lp487
S'novelti'
p488
aF3.0267259904960804e-05
aa(lp489
S'traffic'
p490
aF6.053451980992161e-05
aa(lp491
S'weirdo'
p492
aF3.0267259904960804e-05
aa(lp493
S'wall'
p494
aF3.0267259904960804e-05
aa(lp495
S'niro'
p496
aF0.000151336299524804
aa(lp497
S'exalt'
p498
aF6.053451980992161e-05
aa(lp499
S'cgi'
p500
aF6.053451980992161e-05
aa(lp501
S'sappi'
p502
aF0.00012106903961984322
aa(lp503
S'notic'
p504
aF0.000151336299524804
aa(lp505
S'ceo'
p506
aF3.0267259904960804e-05
aa(lp507
S'one-star'
p508
aF3.0267259904960804e-05
aa(lp509
S'baffl'
p510
aF0.000151336299524804
aa(lp511
S'cia'
p512
aF6.053451980992161e-05
aa(lp513
S'evil'
p514
aF0.00021187081933472562
aa(lp515
S'clad'
p516
aF6.053451980992161e-05
aa(lp517
S'bog'
p518
aF9.080177971488241e-05
aa(lp519
S'forget'
p520
aF0.00018160355942976482
aa(lp521
S'grisli'
p522
aF6.053451980992161e-05
aa(lp523
S'dramat'
p524
aF0.0005145434183843337
aa(lp525
S'factor'
p526
aF9.080177971488241e-05
aa(lp527
S'regard'
p528
aF9.080177971488241e-05
aa(lp529
S'ought'
p530
aF9.080177971488241e-05
aa(lp531
S'dey'
p532
aF3.0267259904960804e-05
aa(lp533
S'dozen'
p534
aF6.053451980992161e-05
aa(lp535
S'denzel'
p536
aF3.0267259904960804e-05
aa(lp537
S'wannab'
p538
aF0.00018160355942976482
aa(lp539
S'gape'
p540
aF3.0267259904960804e-05
aa(lp541
S'so-cal'
p542
aF6.053451980992161e-05
aa(lp543
S'cop'
p544
aF9.080177971488241e-05
aa(lp545
S'crossov'
p546
aF3.0267259904960804e-05
aa(lp547
S'copi'
p548
aF0.000151336299524804
aa(lp549
S'schlocki'
p550
aF3.0267259904960804e-05
aa(lp551
S'equat'
p552
aF9.080177971488241e-05
aa(lp553
S'greasebal'
p554
aF3.0267259904960804e-05
aa(lp555
S'orchestr'
p556
aF3.0267259904960804e-05
aa(lp557
S'cut-and-past'
p558
aF3.0267259904960804e-05
aa(lp559
S'constrict'
p560
aF3.0267259904960804e-05
aa(lp561
S'miniseri'
p562
aF3.0267259904960804e-05
aa(lp563
S'fluent'
p564
aF3.0267259904960804e-05
aa(lp565
S'slender'
p566
aF3.0267259904960804e-05
aa(lp567
S'nightmar'
p568
aF9.080177971488241e-05
aa(lp569
S'bug'
p570
aF6.053451980992161e-05
aa(lp571
S'framework'
p572
aF3.0267259904960804e-05
aa(lp573
S'cold'
p574
aF0.00033293985895456885
aa(lp575
S'star'
p576
aF0.000605345198099216
aa(lp577
S'laudabl'
p578
aF6.053451980992161e-05
aa(lp579
S'substitut'
p580
aF9.080177971488241e-05
aa(lp581
S'blandli'
p582
aF3.0267259904960804e-05
aa(lp583
S'recycl'
p584
aF9.080177971488241e-05
aa(lp585
S'fluffi'
p586
aF9.080177971488241e-05
aa(lp587
S'olymp'
p588
aF3.0267259904960804e-05
aa(lp589
S'split'
p590
aF9.080177971488241e-05
aa(lp591
S'obscen'
p592
aF3.0267259904960804e-05
aa(lp593
S'replac'
p594
aF9.080177971488241e-05
aa(lp595
S'laugh'
p596
aF0.0006658797179091377
aa(lp597
S'laugher'
p598
aF3.0267259904960804e-05
aa(lp599
S'book-on-tap'
p600
aF3.0267259904960804e-05
aa(lp601
S'sketch'
p602
aF0.00012106903961984322
aa(lp603
S'hitchcock'
p604
aF6.053451980992161e-05
aa(lp605
S'ley'
p606
aF3.0267259904960804e-05
aa(lp607
S'muse'
p608
aF6.053451980992161e-05
aa(lp609
S'reconceptu'
p610
aF3.0267259904960804e-05
aa(lp611
S'pelosi'
p612
aF3.0267259904960804e-05
aa(lp613
S'collaps'
p614
aF0.00012106903961984322
aa(lp615
S'aspir'
p616
aF9.080177971488241e-05
aa(lp617
S'danang'
p618
aF3.0267259904960804e-05
aa(lp619
S'aspir'
p620
aF9.080177971488241e-05
aa(lp621
S'bare-bon'
p622
aF3.0267259904960804e-05
aa(lp623
S'satir'
p624
aF0.00024213807923968643
aa(lp625
S'overdon'
p626
aF3.0267259904960804e-05
aa(lp627
S'critic'
p628
aF0.00024213807923968643
aa(lp629
S'rise'
p630
aF0.00027240533914464724
aa(lp631
S'plumb'
p632
aF6.053451980992161e-05
aa(lp633
S'prosaic'
p634
aF3.0267259904960804e-05
aa(lp635
S'phlegmat'
p636
aF3.0267259904960804e-05
aa(lp637
S'piano'
p638
aF6.053451980992161e-05
aa(lp639
S'divid'
p640
aF3.0267259904960804e-05
aa(lp641
S'moral'
p642
aF0.000302672599049608
aa(lp643
S'ordin'
p644
aF3.0267259904960804e-05
aa(lp645
S'unpleasantli'
p646
aF3.0267259904960804e-05
aa(lp647
S'adrift'
p648
aF6.053451980992161e-05
aa(lp649
S'dr.'
p650
aF3.0267259904960804e-05
aa(lp651
S'market'
p652
aF0.000151336299524804
aa(lp653
S'dog'
p654
aF0.000302672599049608
aa(lp655
S'end'
p656
aF0.0012712249160083539
aa(lp657
S'swan'
p658
aF3.0267259904960804e-05
aa(lp659
S'corni'
p660
aF0.00012106903961984322
aa(lp661
S'imaginari'
p662
aF3.0267259904960804e-05
aa(lp663
S'aesthet'
p664
aF6.053451980992161e-05
aa(lp665
S'police-ori'
p666
aF3.0267259904960804e-05
aa(lp667
S'reput'
p668
aF6.053451980992161e-05
aa(lp669
S'ambl'
p670
aF3.0267259904960804e-05
aa(lp671
S'happenst'
p672
aF3.0267259904960804e-05
aa(lp673
S'follow'
p674
aF0.00027240533914464724
aa(lp675
S'friday'
p676
aF0.000151336299524804
aa(lp677
S'televis'
p678
aF0.000151336299524804
aa(lp679
S'advantag'
p680
aF6.053451980992161e-05
aa(lp681
S'maggot'
p682
aF3.0267259904960804e-05
aa(lp683
S'ploddingli'
p684
aF6.053451980992161e-05
aa(lp685
S'support'
p686
aF0.000151336299524804
aa(lp687
S'suppos'
p688
aF0.00024213807923968643
aa(lp689
S'athletic'
p690
aF6.053451980992161e-05
aa(lp691
S'speedi'
p692
aF3.0267259904960804e-05
aa(lp693
S'yang'
p694
aF3.0267259904960804e-05
aa(lp695
S'drowsi'
p696
aF3.0267259904960804e-05
aa(lp697
S'drown'
p698
aF0.00018160355942976482
aa(lp699
S'easier'
p700
aF0.00012106903961984322
aa(lp701
S'1980'
p702
aF3.0267259904960804e-05
aa(lp703
S'despit'
p704
aF0.0006356124580041769
aa(lp705
S'tank'
p706
aF6.053451980992161e-05
aa(lp707
S'lugosi'
p708
aF3.0267259904960804e-05
aa(lp709
S'presid'
p710
aF3.0267259904960804e-05
aa(lp711
S'hossein'
p712
aF3.0267259904960804e-05
aa(lp713
S'stumbl'
p714
aF9.080177971488241e-05
aa(lp715
S'party-hearti'
p716
aF3.0267259904960804e-05
aa(lp717
S'not-so-smal'
p718
aF3.0267259904960804e-05
aa(lp719
S'save'
p720
aF0.000302672599049608
aa(lp721
S'save'
p722
aF0.000302672599049608
aa(lp723
S'firmer'
p724
aF3.0267259904960804e-05
aa(lp725
S'hard-bitten'
p726
aF3.0267259904960804e-05
aa(lp727
S'ghost'
p728
aF0.000151336299524804
aa(lp729
S'peerlessli'
p730
aF3.0267259904960804e-05
aa(lp731
S'fighter'
p732
aF6.053451980992161e-05
aa(lp733
S'pornograph'
p734
aF3.0267259904960804e-05
aa(lp735
S'broken'
p736
aF9.080177971488241e-05
aa(lp737
S'second-r'
p738
aF3.0267259904960804e-05
aa(lp739
S'beacon'
p740
aF3.0267259904960804e-05
aa(lp741
S'wendigo'
p742
aF3.0267259904960804e-05
aa(lp743
S'n.m.'
p744
aF3.0267259904960804e-05
aa(lp745
S'chop'
p746
aF9.080177971488241e-05
aa(lp747
S'evad'
p748
aF3.0267259904960804e-05
aa(lp749
S'savor'
p750
aF3.0267259904960804e-05
aa(lp751
S'formula'
p752
aF0.0005448106782892945
aa(lp753
S'becom'
p754
aF0.0008474832773389025
aa(lp755
S'ararat'
p756
aF6.053451980992161e-05
aa(lp757
S'pop-up'
p758
aF3.0267259904960804e-05
aa(lp759
S'accumul'
p760
aF3.0267259904960804e-05
aa(lp761
S'numbingli'
p762
aF6.053451980992161e-05
aa(lp763
S'accumul'
p764
aF3.0267259904960804e-05
aa(lp765
S'naturalist'
p766
aF6.053451980992161e-05
aa(lp767
S'weird'
p768
aF0.000302672599049608
aa(lp769
S'experienc'
p770
aF9.080177971488241e-05
aa(lp771
S'wallow'
p772
aF3.0267259904960804e-05
aa(lp773
S'substandard'
p774
aF3.0267259904960804e-05
aa(lp775
S'triangl'
p776
aF9.080177971488241e-05
aa(lp777
S'pb'
p778
aF3.0267259904960804e-05
aa(lp779
S'wage'
p780
aF3.0267259904960804e-05
aa(lp781
S'climb'
p782
aF3.0267259904960804e-05
aa(lp783
S'drop'
p784
aF9.080177971488241e-05
aa(lp785
S'sonni'
p786
aF3.0267259904960804e-05
aa(lp787
S'relat'
p788
aF6.053451980992161e-05
aa(lp789
S'categor'
p790
aF3.0267259904960804e-05
aa(lp791
S'fruit'
p792
aF3.0267259904960804e-05
aa(lp793
S'auster'
p794
aF3.0267259904960804e-05
aa(lp795
S'valentin'
p796
aF3.0267259904960804e-05
aa(lp797
S'whiney'
p798
aF3.0267259904960804e-05
aa(lp799
S'street'
p800
aF0.00012106903961984322
aa(lp801
S'ritchi'
p802
aF9.080177971488241e-05
aa(lp803
S'op'
p804
aF3.0267259904960804e-05
aa(lp805
S'-lrb-'
p806
aF0.00227004449287206
aa(lp807
S'splice'
p808
aF3.0267259904960804e-05
aa(lp809
S'bottom-of-the-bil'
p810
aF3.0267259904960804e-05
aa(lp811
S'desir'
p812
aF0.00018160355942976482
aa(lp813
S'wayward'
p814
aF3.0267259904960804e-05
aa(lp815
S'condit'
p816
aF0.00012106903961984322
aa(lp817
S'stumbl'
p818
aF9.080177971488241e-05
aa(lp819
S'razzi'
p820
aF3.0267259904960804e-05
aa(lp821
S'lazier'
p822
aF3.0267259904960804e-05
aa(lp823
S'yell'
p824
aF3.0267259904960804e-05
aa(lp825
S'test'
p826
aF0.000151336299524804
aa(lp827
S'pie'
p828
aF9.080177971488241e-05
aa(lp829
S'talki'
p830
aF0.000151336299524804
aa(lp831
S'crude'
p832
aF9.080177971488241e-05
aa(lp833
S'resembl'
p834
aF0.00018160355942976482
aa(lp835
S'hairier'
p836
aF3.0267259904960804e-05
aa(lp837
S'sketch'
p838
aF0.00012106903961984322
aa(lp839
S'old-hat'
p840
aF3.0267259904960804e-05
aa(lp841
S'screenplay'
p842
aF0.0006356124580041769
aa(lp843
S'kuni'
p844
aF3.0267259904960804e-05
aa(lp845
S'merit'
p846
aF0.000151336299524804
aa(lp847
S'affluent'
p848
aF3.0267259904960804e-05
aa(lp849
S'floweri'
p850
aF3.0267259904960804e-05
aa(lp851
S'revolt'
p852
aF3.0267259904960804e-05
aa(lp853
S'gander'
p854
aF3.0267259904960804e-05
aa(lp855
S'sting'
p856
aF6.053451980992161e-05
aa(lp857
S'beast-within'
p858
aF3.0267259904960804e-05
aa(lp859
S'princess'
p860
aF6.053451980992161e-05
aa(lp861
S'inconceiv'
p862
aF3.0267259904960804e-05
aa(lp863
S'useless'
p864
aF6.053451980992161e-05
aa(lp865
S'succeed'
p866
aF0.00012106903961984322
aa(lp867
S'crush'
p868
aF0.00021187081933472562
aa(lp869
S'sniffl'
p870
aF3.0267259904960804e-05
aa(lp871
S'milder'
p872
aF3.0267259904960804e-05
aa(lp873
S'hoari'
p874
aF3.0267259904960804e-05
aa(lp875
S'couch'
p876
aF3.0267259904960804e-05
aa(lp877
S'ruin'
p878
aF6.053451980992161e-05
aa(lp879
S'sustain'
p880
aF0.00024213807923968643
aa(lp881
S'hobbi'
p882
aF3.0267259904960804e-05
aa(lp883
S'unsophist'
p884
aF3.0267259904960804e-05
aa(lp885
S'low-tech'
p886
aF3.0267259904960804e-05
aa(lp887
S'pornographi'
p888
aF3.0267259904960804e-05
aa(lp889
S'rocki'
p890
aF6.053451980992161e-05
aa(lp891
S'litmu'
p892
aF6.053451980992161e-05
aa(lp893
S'gunfight'
p894
aF3.0267259904960804e-05
aa(lp895
S'imponder'
p896
aF3.0267259904960804e-05
aa(lp897
S'bromid'
p898
aF3.0267259904960804e-05
aa(lp899
S'enigma'
p900
aF9.080177971488241e-05
aa(lp901
S'something-borrow'
p902
aF3.0267259904960804e-05
aa(lp903
S'coutur'
p904
aF3.0267259904960804e-05
aa(lp905
S'takashi'
p906
aF3.0267259904960804e-05
aa(lp907
S'instanc'
p908
aF6.053451980992161e-05
aa(lp909
S'semi-amus'
p910
aF3.0267259904960804e-05
aa(lp911
S'lina'
p912
aF3.0267259904960804e-05
aa(lp913
S'normal'
p914
aF6.053451980992161e-05
aa(lp915
S'night'
p916
aF0.00021187081933472562
aa(lp917
S'drain'
p918
aF6.053451980992161e-05
aa(lp919
S'laugh'
p920
aF0.0006658797179091377
aa(lp921
S'high-concept'
p922
aF3.0267259904960804e-05
aa(lp923
S'methodolog'
p924
aF3.0267259904960804e-05
aa(lp925
S'draft'
p926
aF3.0267259904960804e-05
aa(lp927
S'slip'
p928
aF0.00012106903961984322
aa(lp929
S'spread'
p930
aF6.053451980992161e-05
aa(lp931
S'manner'
p932
aF0.00021187081933472562
aa(lp933
S'ultim'
p934
aF0.000938285057053785
aa(lp935
S'market'
p936
aF0.000151336299524804
aa(lp937
S'ultim'
p938
aF0.000938285057053785
aa(lp939
S'bodi'
p940
aF0.00021187081933472562
aa(lp941
S'account'
p942
aF0.00012106903961984322
aa(lp943
S'theori'
p944
aF0.00012106903961984322
aa(lp945
S'numb'
p946
aF6.053451980992161e-05
aa(lp947
S'video-view'
p948
aF3.0267259904960804e-05
aa(lp949
S'liza'
p950
aF6.053451980992161e-05
aa(lp951
S'costner'
p952
aF9.080177971488241e-05
aa(lp953
S'compos'
p954
aF6.053451980992161e-05
aa(lp955
S'compos'
p956
aF6.053451980992161e-05
aa(lp957
S'cheesier'
p958
aF3.0267259904960804e-05
aa(lp959
S'sat'
p960
aF3.0267259904960804e-05
aa(lp961
S'slick'
p962
aF9.080177971488241e-05
aa(lp963
S'american'
p964
aF0.000605345198099216
aa(lp965
S'call'
p966
aF0.0004540088985744121
aa(lp967
S'dull-wit'
p968
aF3.0267259904960804e-05
aa(lp969
S'actress-produc'
p970
aF3.0267259904960804e-05
aa(lp971
S'goombah'
p972
aF3.0267259904960804e-05
aa(lp973
S'immatur'
p974
aF9.080177971488241e-05
aa(lp975
S'moan'
p976
aF6.053451980992161e-05
aa(lp977
S'dishonest'
p978
aF6.053451980992161e-05
aa(lp979
S'embalm'
p980
aF3.0267259904960804e-05
aa(lp981
S'nearli'
p982
aF0.00042374163866945125
aa(lp983
S'ensur'
p984
aF6.053451980992161e-05
aa(lp985
S'lovefest'
p986
aF3.0267259904960804e-05
aa(lp987
S'long'
p988
aF0.0010290868367686674
aa(lp989
S'littl'
p990
aF0.001392293955628197
aa(lp991
S'l.a.'
p992
aF3.0267259904960804e-05
aa(lp993
S'halloween'
p994
aF6.053451980992161e-05
aa(lp995
S'complac'
p996
aF6.053451980992161e-05
aa(lp997
S'lock'
p998
aF3.0267259904960804e-05
aa(lp999
S'self-right'
p1000
aF6.053451980992161e-05
aa(lp1001
S'rigor'
p1002
aF3.0267259904960804e-05
aa(lp1003
S'session'
p1004
aF6.053451980992161e-05
aa(lp1005
S'soprano'
p1006
aF3.0267259904960804e-05
aa(lp1007
S'satir'
p1008
aF0.00024213807923968643
aa(lp1009
S'dramat'
p1010
aF0.0005145434183843337
aa(lp1011
S'tryingli'
p1012
aF3.0267259904960804e-05
aa(lp1013
S'point-and-shoot'
p1014
aF3.0267259904960804e-05
aa(lp1015
S'crush'
p1016
aF0.00021187081933472562
aa(lp1017
S'puzzl'
p1018
aF0.000151336299524804
aa(lp1019
S'invest'
p1020
aF9.080177971488241e-05
aa(lp1021
S'hill'
p1022
aF9.080177971488241e-05
aa(lp1023
S'jet'
p1024
aF6.053451980992161e-05
aa(lp1025
S'arduou'
p1026
aF3.0267259904960804e-05
aa(lp1027
S'spotti'
p1028
aF3.0267259904960804e-05
aa(lp1029
S'admit'
p1030
aF0.00012106903961984322
aa(lp1031
S'wean'
p1032
aF3.0267259904960804e-05
aa(lp1033
S'sandler'
p1034
aF0.00027240533914464724
aa(lp1035
S'leav'
p1036
aF0.0006356124580041769
aa(lp1037
S'teenag'
p1038
aF0.000151336299524804
aa(lp1039
S'lost'
p1040
aF0.00021187081933472562
aa(lp1041
S'promisingli'
p1042
aF9.080177971488241e-05
aa(lp1043
S'jovial'
p1044
aF3.0267259904960804e-05
aa(lp1045
S'voice-ov'
p1046
aF3.0267259904960804e-05
aa(lp1047
S'rehash'
p1048
aF0.00012106903961984322
aa(lp1049
S'vagu'
p1050
aF0.00018160355942976482
aa(lp1051
S'permiss'
p1052
aF3.0267259904960804e-05
aa(lp1053
S'absurdist'
p1054
aF9.080177971488241e-05
aa(lp1055
S'less-compel'
p1056
aF3.0267259904960804e-05
aa(lp1057
S'absurd'
p1058
aF0.00018160355942976482
aa(lp1059
S'veil'
p1060
aF3.0267259904960804e-05
aa(lp1061
S'cadav'
p1062
aF3.0267259904960804e-05
aa(lp1063
S'appar'
p1064
aF0.000302672599049608
aa(lp1065
S'uncool'
p1066
aF3.0267259904960804e-05
aa(lp1067
S'akin'
p1068
aF6.053451980992161e-05
aa(lp1069
S'consequ'
p1070
aF9.080177971488241e-05
aa(lp1071
S'abridg'
p1072
aF3.0267259904960804e-05
aa(lp1073
S'lectur'
p1074
aF6.053451980992161e-05
aa(lp1075
S'detractor'
p1076
aF3.0267259904960804e-05
aa(lp1077
S'sting'
p1078
aF6.053451980992161e-05
aa(lp1079
S'mawkish'
p1080
aF3.0267259904960804e-05
aa(lp1081
S'saturday'
p1082
aF6.053451980992161e-05
aa(lp1083
S'gabbiest'
p1084
aF3.0267259904960804e-05
aa(lp1085
S'dead'
p1086
aF0.00021187081933472562
aa(lp1087
S'session'
p1088
aF6.053451980992161e-05
aa(lp1089
S'shame'
p1090
aF0.00018160355942976482
aa(lp1091
S'hustl'
p1092
aF3.0267259904960804e-05
aa(lp1093
S'cockney'
p1094
aF3.0267259904960804e-05
aa(lp1095
S'network'
p1096
aF3.0267259904960804e-05
aa(lp1097
S'grow'
p1098
aF0.00036320711885952963
aa(lp1099
S'juic'
p1100
aF3.0267259904960804e-05
aa(lp1101
S'kitchen'
p1102
aF3.0267259904960804e-05
aa(lp1103
S'dilettant'
p1104
aF3.0267259904960804e-05
aa(lp1105
S'extreme-sport'
p1106
aF3.0267259904960804e-05
aa(lp1107
S'kid'
p1108
aF0.0006961469778140985
aa(lp1109
S'fallen'
p1110
aF6.053451980992161e-05
aa(lp1111
S'tuxedo'
p1112
aF0.00012106903961984322
aa(lp1113
S'marri'
p1114
aF3.0267259904960804e-05
aa(lp1115
S'as-nasti'
p1116
aF3.0267259904960804e-05
aa(lp1117
S'darker'
p1118
aF6.053451980992161e-05
aa(lp1119
S'unit'
p1120
aF6.053451980992161e-05
aa(lp1121
S'outrag'
p1122
aF0.000151336299524804
aa(lp1123
S'follow'
p1124
aF0.00027240533914464724
aa(lp1125
S'cover'
p1126
aF0.00012106903961984322
aa(lp1127
S'mutat'
p1128
aF3.0267259904960804e-05
aa(lp1129
S'excruci'
p1130
aF6.053451980992161e-05
aa(lp1131
S'dwindl'
p1132
aF3.0267259904960804e-05
aa(lp1133
S'relay'
p1134
aF3.0267259904960804e-05
aa(lp1135
S'duplic'
p1136
aF3.0267259904960804e-05
aa(lp1137
S'tail'
p1138
aF3.0267259904960804e-05
aa(lp1139
S'cattaneo'
p1140
aF3.0267259904960804e-05
aa(lp1141
S'must-own'
p1142
aF3.0267259904960804e-05
aa(lp1143
S'feebl'
p1144
aF3.0267259904960804e-05
aa(lp1145
S'weird'
p1146
aF0.000302672599049608
aa(lp1147
S'saddest'
p1148
aF3.0267259904960804e-05
aa(lp1149
S'gener'
p1150
aF0.0006961469778140985
aa(lp1151
S'tart'
p1152
aF6.053451980992161e-05
aa(lp1153
S'bust'
p1154
aF3.0267259904960804e-05
aa(lp1155
S'molest'
p1156
aF6.053451980992161e-05
aa(lp1157
S'predat'
p1158
aF3.0267259904960804e-05
aa(lp1159
S'formula'
p1160
aF0.0005448106782892945
aa(lp1161
S'lan'
p1162
aF6.053451980992161e-05
aa(lp1163
S'tri'
p1164
aF0.0013317594358182754
aa(lp1165
S'intric'
p1166
aF6.053451980992161e-05
aa(lp1167
S'motiv'
p1168
aF0.000151336299524804
aa(lp1169
S'italic'
p1170
aF6.053451980992161e-05
aa(lp1171
S'masseur'
p1172
aF3.0267259904960804e-05
aa(lp1173
S'manipul'
p1174
aF0.000302672599049608
aa(lp1175
S'adopt'
p1176
aF6.053451980992161e-05
aa(lp1177
S'writer-actor'
p1178
aF3.0267259904960804e-05
aa(lp1179
S'drunken'
p1180
aF6.053451980992161e-05
aa(lp1181
S'hundr'
p1182
aF6.053451980992161e-05
aa(lp1183
S'battl'
p1184
aF0.00018160355942976482
aa(lp1185
S'manipul'
p1186
aF0.000302672599049608
aa(lp1187
S'merchant'
p1188
aF9.080177971488241e-05
aa(lp1189
S'countercultur'
p1190
aF3.0267259904960804e-05
aa(lp1191
S'jumbl'
p1192
aF9.080177971488241e-05
aa(lp1193
S'traffic'
p1194
aF6.053451980992161e-05
aa(lp1195
S'concentr'
p1196
aF6.053451980992161e-05
aa(lp1197
S'strain'
p1198
aF0.00018160355942976482
aa(lp1199
S'match'
p1200
aF0.00018160355942976482
aa(lp1201
S'mccoist'
p1202
aF3.0267259904960804e-05
aa(lp1203
S'schiffer'
p1204
aF3.0267259904960804e-05
aa(lp1205
S'devote'
p1206
aF6.053451980992161e-05
aa(lp1207
S'manner'
p1208
aF0.00021187081933472562
aa(lp1209
S'wrote'
p1210
aF6.053451980992161e-05
aa(lp1211
S'gloom'
p1212
aF3.0267259904960804e-05
aa(lp1213
S'account'
p1214
aF0.00012106903961984322
aa(lp1215
S'scrapbook'
p1216
aF3.0267259904960804e-05
aa(lp1217
S'pompou'
p1218
aF3.0267259904960804e-05
aa(lp1219
S'impetu'
p1220
aF3.0267259904960804e-05
aa(lp1221
S'manipul'
p1222
aF0.000302672599049608
aa(lp1223
S'voice-ov'
p1224
aF3.0267259904960804e-05
aa(lp1225
S'nba'
p1226
aF3.0267259904960804e-05
aa(lp1227
S'sidey'
p1228
aF3.0267259904960804e-05
aa(lp1229
S'patron'
p1230
aF3.0267259904960804e-05
aa(lp1231
S'einstein'
p1232
aF3.0267259904960804e-05
aa(lp1233
S'wertmul'
p1234
aF6.053451980992161e-05
aa(lp1235
S'contrast'
p1236
aF6.053451980992161e-05
aa(lp1237
S'self-promot'
p1238
aF3.0267259904960804e-05
aa(lp1239
S'medium-grad'
p1240
aF3.0267259904960804e-05
aa(lp1241
S'mediocr'
p1242
aF0.000302672599049608
aa(lp1243
S'weight'
p1244
aF0.00018160355942976482
aa(lp1245
S'busi'
p1246
aF0.00018160355942976482
aa(lp1247
S'self-indulg'
p1248
aF9.080177971488241e-05
aa(lp1249
S'matur'
p1250
aF9.080177971488241e-05
aa(lp1251
S'scald'
p1252
aF3.0267259904960804e-05
aa(lp1253
S'creepiest'
p1254
aF3.0267259904960804e-05
aa(lp1255
S'pad'
p1256
aF0.00012106903961984322
aa(lp1257
S'taint'
p1258
aF3.0267259904960804e-05
aa(lp1259
S'leg'
p1260
aF0.00012106903961984322
aa(lp1261
S'gear'
p1262
aF9.080177971488241e-05
aa(lp1263
S'hysteria'
p1264
aF3.0267259904960804e-05
aa(lp1265
S'regard'
p1266
aF9.080177971488241e-05
aa(lp1267
S'ignor'
p1268
aF0.000151336299524804
aa(lp1269
S'spectat'
p1270
aF6.053451980992161e-05
aa(lp1271
S'african'
p1272
aF3.0267259904960804e-05
aa(lp1273
S'action-adventur'
p1274
aF3.0267259904960804e-05
aa(lp1275
S'glorifi'
p1276
aF6.053451980992161e-05
aa(lp1277
S'scene'
p1278
aF0.0008474832773389025
aa(lp1279
S'week'
p1280
aF0.00018160355942976482
aa(lp1281
S'focus'
p1282
aF9.080177971488241e-05
aa(lp1283
S'star'
p1284
aF0.000605345198099216
aa(lp1285
S'alien'
p1286
aF0.00024213807923968643
aa(lp1287
S'progress'
p1288
aF6.053451980992161e-05
aa(lp1289
S'focus'
p1290
aF9.080177971488241e-05
aa(lp1291
S'progress'
p1292
aF6.053451980992161e-05
aa(lp1293
S'bigelow'
p1294
aF6.053451980992161e-05
aa(lp1295
S'mediocr'
p1296
aF0.000302672599049608
aa(lp1297
S'cranki'
p1298
aF3.0267259904960804e-05
aa(lp1299
S'beer'
p1300
aF6.053451980992161e-05
aa(lp1301
S'puzzl'
p1302
aF0.000151336299524804
aa(lp1303
S'blade'
p1304
aF0.00018160355942976482
aa(lp1305
S'stretch'
p1306
aF0.00021187081933472562
aa(lp1307
S'stretch'
p1308
aF0.00021187081933472562
aa(lp1309
S'fuss'
p1310
aF3.0267259904960804e-05
aa(lp1311
S'favor'
p1312
aF0.00021187081933472562
aa(lp1313
S'facial'
p1314
aF3.0267259904960804e-05
aa(lp1315
S'homo-erotic'
p1316
aF3.0267259904960804e-05
aa(lp1317
S'overli'
p1318
aF0.000151336299524804
aa(lp1319
S'repetit'
p1320
aF0.00021187081933472562
aa(lp1321
S'development'
p1322
aF3.0267259904960804e-05
aa(lp1323
S'puritan'
p1324
aF3.0267259904960804e-05
aa(lp1325
S'clinch'
p1326
aF3.0267259904960804e-05
aa(lp1327
S'strenuou'
p1328
aF3.0267259904960804e-05
aa(lp1329
S'team'
p1330
aF0.00012106903961984322
aa(lp1331
S'mundan'
p1332
aF6.053451980992161e-05
aa(lp1333
S'wow'
p1334
aF6.053451980992161e-05
aa(lp1335
S'nasti'
p1336
aF0.00012106903961984322
aa(lp1337
S'repetit'
p1338
aF0.00021187081933472562
aa(lp1339
S'high-pow'
p1340
aF3.0267259904960804e-05
aa(lp1341
S'demand'
p1342
aF0.00012106903961984322
aa(lp1343
S'science-fict'
p1344
aF6.053451980992161e-05
aa(lp1345
S'dramat'
p1346
aF0.0005145434183843337
aa(lp1347
S'bailiwick'
p1348
aF3.0267259904960804e-05
aa(lp1349
S'relentless'
p1350
aF6.053451980992161e-05
aa(lp1351
S'simper'
p1352
aF3.0267259904960804e-05
aa(lp1353
S'giant-screen'
p1354
aF3.0267259904960804e-05
aa(lp1355
S'movie-specif'
p1356
aF3.0267259904960804e-05
aa(lp1357
S'irrit'
p1358
aF0.000151336299524804
aa(lp1359
S'ledger'
p1360
aF3.0267259904960804e-05
aa(lp1361
S'windshield'
p1362
aF3.0267259904960804e-05
aa(lp1363
S'pryor'
p1364
aF3.0267259904960804e-05
aa(lp1365
S'structur'
p1366
aF0.00021187081933472562
aa(lp1367
S'wai'
p1368
aF3.0267259904960804e-05
aa(lp1369
S'chan'
p1370
aF0.00033293985895456885
aa(lp1371
S'chai'
p1372
aF6.053451980992161e-05
aa(lp1373
S'right-hand'
p1374
aF3.0267259904960804e-05
aa(lp1375
S'low-rent'
p1376
aF6.053451980992161e-05
aa(lp1377
S'rerun'
p1378
aF6.053451980992161e-05
aa(lp1379
S'janey'
p1380
aF3.0267259904960804e-05
aa(lp1381
S'recogn'
p1382
aF6.053451980992161e-05
aa(lp1383
S'sisterhood'
p1384
aF3.0267259904960804e-05
aa(lp1385
S'undermin'
p1386
aF0.000151336299524804
aa(lp1387
S'recogn'
p1388
aF6.053451980992161e-05
aa(lp1389
S'escapad'
p1390
aF3.0267259904960804e-05
aa(lp1391
S'spark'
p1392
aF0.00018160355942976482
aa(lp1393
S'perfervid'
p1394
aF3.0267259904960804e-05
aa(lp1395
S'slummer'
p1396
aF3.0267259904960804e-05
aa(lp1397
S'weak'
p1398
aF0.00021187081933472562
aa(lp1399
S'feed'
p1400
aF3.0267259904960804e-05
aa(lp1401
S'fee'
p1402
aF3.0267259904960804e-05
aa(lp1403
S'shallow'
p1404
aF0.00021187081933472562
aa(lp1405
S'calculu'
p1406
aF3.0267259904960804e-05
aa(lp1407
S'solut'
p1408
aF6.053451980992161e-05
aa(lp1409
S'absurd'
p1410
aF0.00018160355942976482
aa(lp1411
S'immacul'
p1412
aF3.0267259904960804e-05
aa(lp1413
S'wittgenstein'
p1414
aF3.0267259904960804e-05
aa(lp1415
S'uneven'
p1416
aF0.00024213807923968643
aa(lp1417
S'tend'
p1418
aF0.00012106903961984322
aa(lp1419
S'parti'
p1420
aF0.00018160355942976482
aa(lp1421
S'substanti'
p1422
aF9.080177971488241e-05
aa(lp1423
S'sublimin'
p1424
aF3.0267259904960804e-05
aa(lp1425
S'long-run'
p1426
aF3.0267259904960804e-05
aa(lp1427
S'critic'
p1428
aF0.00024213807923968643
aa(lp1429
S'potshot'
p1430
aF6.053451980992161e-05
aa(lp1431
S'titil'
p1432
aF3.0267259904960804e-05
aa(lp1433
S'enact'
p1434
aF9.080177971488241e-05
aa(lp1435
S'chapter'
p1436
aF3.0267259904960804e-05
aa(lp1437
S'zoe'
p1438
aF3.0267259904960804e-05
aa(lp1439
S'lower-wit'
p1440
aF3.0267259904960804e-05
aa(lp1441
S'she-cut'
p1442
aF3.0267259904960804e-05
aa(lp1443
S'independ'
p1444
aF6.053451980992161e-05
aa(lp1445
S'sting'
p1446
aF6.053451980992161e-05
aa(lp1447
S'gandalf'
p1448
aF3.0267259904960804e-05
aa(lp1449
S'begun'
p1450
aF3.0267259904960804e-05
aa(lp1451
S'team'
p1452
aF0.00012106903961984322
aa(lp1453
S'weightless'
p1454
aF3.0267259904960804e-05
aa(lp1455
S'cross-cultur'
p1456
aF3.0267259904960804e-05
aa(lp1457
S'eager'
p1458
aF9.080177971488241e-05
aa(lp1459
S'raunchi'
p1460
aF6.053451980992161e-05
aa(lp1461
S'past'
p1462
aF0.00033293985895456885
aa(lp1463
S'self-congratul'
p1464
aF6.053451980992161e-05
aa(lp1465
S'match'
p1466
aF0.00018160355942976482
aa(lp1467
S'match'
p1468
aF0.00018160355942976482
aa(lp1469
S'prostitut'
p1470
aF3.0267259904960804e-05
aa(lp1471
S'13th'
p1472
aF3.0267259904960804e-05
aa(lp1473
S'absurd'
p1474
aF0.00018160355942976482
aa(lp1475
S'critic'
p1476
aF0.00024213807923968643
aa(lp1477
S'sugar-co'
p1478
aF3.0267259904960804e-05
aa(lp1479
S'memoir'
p1480
aF3.0267259904960804e-05
aa(lp1481
S'sorri'
p1482
aF6.053451980992161e-05
aa(lp1483
S'plotless'
p1484
aF6.053451980992161e-05
aa(lp1485
S'retreat'
p1486
aF6.053451980992161e-05
aa(lp1487
S'anti-'
p1488
aF3.0267259904960804e-05
aa(lp1489
S'opaqu'
p1490
aF6.053451980992161e-05
aa(lp1491
S'stalk'
p1492
aF3.0267259904960804e-05
aa(lp1493
S'drinker'
p1494
aF3.0267259904960804e-05
aa(lp1495
S'style-fre'
p1496
aF3.0267259904960804e-05
aa(lp1497
S'mysteri'
p1498
aF0.00033293985895456885
aa(lp1499
S'chou'
p1500
aF6.053451980992161e-05
aa(lp1501
S'creaki'
p1502
aF3.0267259904960804e-05
aa(lp1503
S'past'
p1504
aF0.00033293985895456885
aa(lp1505
S'ghost'
p1506
aF0.000151336299524804
aa(lp1507
S'deer'
p1508
aF3.0267259904960804e-05
aa(lp1509
S'favor'
p1510
aF0.00021187081933472562
aa(lp1511
S'cathart'
p1512
aF6.053451980992161e-05
aa(lp1513
S'magic'
p1514
aF0.00024213807923968643
aa(lp1515
S'past'
p1516
aF0.00033293985895456885
aa(lp1517
S'depalma'
p1518
aF3.0267259904960804e-05
aa(lp1519
S'independ'
p1520
aF6.053451980992161e-05
aa(lp1521
S'detach'
p1522
aF0.00012106903961984322
aa(lp1523
S'dear'
p1524
aF3.0267259904960804e-05
aa(lp1525
S'endur'
p1526
aF0.00012106903961984322
aa(lp1527
S'unattract'
p1528
aF3.0267259904960804e-05
aa(lp1529
S'deal'
p1530
aF0.00024213807923968643
aa(lp1531
S'dead'
p1532
aF0.00021187081933472562
aa(lp1533
S'prolong'
p1534
aF6.053451980992161e-05
aa(lp1535
S'routin'
p1536
aF0.00021187081933472562
aa(lp1537
S'exhibition'
p1538
aF3.0267259904960804e-05
aa(lp1539
S'filmgoer'
p1540
aF3.0267259904960804e-05
aa(lp1541
S'promis'
p1542
aF0.00042374163866945125
aa(lp1543
S'counterproduct'
p1544
aF3.0267259904960804e-05
aa(lp1545
S'observ'
p1546
aF0.00024213807923968643
aa(lp1547
S'forget'
p1548
aF0.00018160355942976482
aa(lp1549
S'favor'
p1550
aF0.00021187081933472562
aa(lp1551
S'gamut'
p1552
aF3.0267259904960804e-05
aa(lp1553
S'settl'
p1554
aF0.000151336299524804
aa(lp1555
S'asid'
p1556
aF0.000151336299524804
aa(lp1557
S'situat'
p1558
aF0.00033293985895456885
aa(lp1559
S'milk'
p1560
aF9.080177971488241e-05
aa(lp1561
S'statur'
p1562
aF3.0267259904960804e-05
aa(lp1563
S'let-down'
p1564
aF3.0267259904960804e-05
aa(lp1565
S'settl'
p1566
aF0.000151336299524804
aa(lp1567
S'limit'
p1568
aF0.00021187081933472562
aa(lp1569
S'nemesi'
p1570
aF6.053451980992161e-05
aa(lp1571
S'splendour'
p1572
aF3.0267259904960804e-05
aa(lp1573
S'critic'
p1574
aF0.00024213807923968643
aa(lp1575
S'park'
p1576
aF0.00012106903961984322
aa(lp1577
S'laps'
p1578
aF9.080177971488241e-05
aa(lp1579
S'text'
p1580
aF6.053451980992161e-05
aa(lp1581
S'pale'
p1582
aF6.053451980992161e-05
aa(lp1583
S'reduc'
p1584
aF9.080177971488241e-05
aa(lp1585
S'tread'
p1586
aF9.080177971488241e-05
aa(lp1587
S'solondz'
p1588
aF0.00021187081933472562
aa(lp1589
S'icon'
p1590
aF6.053451980992161e-05
aa(lp1591
S'test'
p1592
aF0.000151336299524804
aa(lp1593
S'midnight'
p1594
aF6.053451980992161e-05
aa(lp1595
S'hammer'
p1596
aF6.053451980992161e-05
aa(lp1597
S'girls-behaving-badli'
p1598
aF3.0267259904960804e-05
aa(lp1599
S'tarkovski'
p1600
aF3.0267259904960804e-05
aa(lp1601
S'final'
p1602
aF0.0005750779381942553
aa(lp1603
S'belt'
p1604
aF0.00012106903961984322
aa(lp1605
S'attack'
p1606
aF6.053451980992161e-05
aa(lp1607
S'self-knowledg'
p1608
aF3.0267259904960804e-05
aa(lp1609
S'bela'
p1610
aF3.0267259904960804e-05
aa(lp1611
S'proper'
p1612
aF6.053451980992161e-05
aa(lp1613
S'weird'
p1614
aF0.000302672599049608
aa(lp1615
S'upbeat'
p1616
aF3.0267259904960804e-05
aa(lp1617
S'tick-tock'
p1618
aF3.0267259904960804e-05
aa(lp1619
S'wash'
p1620
aF6.053451980992161e-05
aa(lp1621
S'hard'
p1622
aF0.0007264142377190593
aa(lp1623
S'hawn'
p1624
aF3.0267259904960804e-05
aa(lp1625
S'hawk'
p1626
aF9.080177971488241e-05
aa(lp1627
S'bitchi'
p1628
aF3.0267259904960804e-05
aa(lp1629
S'humanli'
p1630
aF3.0267259904960804e-05
aa(lp1631
S'therapeut'
p1632
aF3.0267259904960804e-05
aa(lp1633
S'mail'
p1634
aF3.0267259904960804e-05
aa(lp1635
S'surgeon'
p1636
aF3.0267259904960804e-05
aa(lp1637
S'puzzl'
p1638
aF0.000151336299524804
aa(lp1639
S'scant'
p1640
aF3.0267259904960804e-05
aa(lp1641
S'puzzl'
p1642
aF0.000151336299524804
aa(lp1643
S'carrier'
p1644
aF3.0267259904960804e-05
aa(lp1645
S'hangov'
p1646
aF3.0267259904960804e-05
aa(lp1647
S'mountain'
p1648
aF3.0267259904960804e-05
aa(lp1649
S'brain-deaden'
p1650
aF3.0267259904960804e-05
aa(lp1651
S'tend'
p1652
aF0.00012106903961984322
aa(lp1653
S'playbook'
p1654
aF3.0267259904960804e-05
aa(lp1655
S'serious'
p1656
aF0.00024213807923968643
aa(lp1657
S'mommi'
p1658
aF3.0267259904960804e-05
aa(lp1659
S'monoton'
p1660
aF6.053451980992161e-05
aa(lp1661
S'undramat'
p1662
aF3.0267259904960804e-05
aa(lp1663
S'smackdown'
p1664
aF3.0267259904960804e-05
aa(lp1665
S'downbeat'
p1666
aF3.0267259904960804e-05
aa(lp1667
S'major'
p1668
aF0.00021187081933472562
aa(lp1669
S'preview'
p1670
aF3.0267259904960804e-05
aa(lp1671
S'maze'
p1672
aF3.0267259904960804e-05
aa(lp1673
S'ballerina'
p1674
aF3.0267259904960804e-05
aa(lp1675
S'leav'
p1676
aF0.0006356124580041769
aa(lp1677
S'm.i.t.'
p1678
aF3.0267259904960804e-05
aa(lp1679
S'aimlessli'
p1680
aF6.053451980992161e-05
aa(lp1681
S'translat'
p1682
aF9.080177971488241e-05
aa(lp1683
S'hippopotamu'
p1684
aF3.0267259904960804e-05
aa(lp1685
S'gallic'
p1686
aF3.0267259904960804e-05
aa(lp1687
S'bug-ey'
p1688
aF6.053451980992161e-05
aa(lp1689
S'come'
p1690
aF0.001392293955628197
aa(lp1691
S'tnt'
p1692
aF3.0267259904960804e-05
aa(lp1693
S'replac'
p1694
aF9.080177971488241e-05
aa(lp1695
S'runner'
p1696
aF6.053451980992161e-05
aa(lp1697
S'fish'
p1698
aF0.00012106903961984322
aa(lp1699
S'laugh'
p1700
aF0.0006658797179091377
aa(lp1701
S'graze'
p1702
aF3.0267259904960804e-05
aa(lp1703
S'troubl'
p1704
aF0.00024213807923968643
aa(lp1705
S'proven'
p1706
aF3.0267259904960804e-05
aa(lp1707
S'grave'
p1708
aF9.080177971488241e-05
aa(lp1709
S'straight-ahead'
p1710
aF3.0267259904960804e-05
aa(lp1711
S'street'
p1712
aF0.00012106903961984322
aa(lp1713
S'hypothesi'
p1714
aF3.0267259904960804e-05
aa(lp1715
S'run'
p1716
aF0.0008172160174339417
aa(lp1717
S'straight-fac'
p1718
aF3.0267259904960804e-05
aa(lp1719
S'sanctimoni'
p1720
aF6.053451980992161e-05
aa(lp1721
S'similar'
p1722
aF0.00012106903961984322
aa(lp1723
S'ripe'
p1724
aF6.053451980992161e-05
aa(lp1725
S'defeat'
p1726
aF6.053451980992161e-05
aa(lp1727
S'like'
p1728
aF0.004479554465934199
aa(lp1729
S'liotta'
p1730
aF3.0267259904960804e-05
aa(lp1731
S'like'
p1732
aF0.004479554465934199
aa(lp1733
S'call'
p1734
aF0.0004540088985744121
aa(lp1735
S'swimfan'
p1736
aF6.053451980992161e-05
aa(lp1737
S'rise'
p1738
aF0.00027240533914464724
aa(lp1739
S'rinzler'
p1740
aF3.0267259904960804e-05
aa(lp1741
S'sleep-induc'
p1742
aF3.0267259904960804e-05
aa(lp1743
S'arti'
p1744
aF6.053451980992161e-05
aa(lp1745
S'epiphani'
p1746
aF6.053451980992161e-05
aa(lp1747
S'rife'
p1748
aF6.053451980992161e-05
aa(lp1749
S'professor'
p1750
aF3.0267259904960804e-05
aa(lp1751
S'disconcertingli'
p1752
aF3.0267259904960804e-05
aa(lp1753
S'parachut'
p1754
aF3.0267259904960804e-05
aa(lp1755
S'downplay'
p1756
aF3.0267259904960804e-05
aa(lp1757
S'ransom'
p1758
aF3.0267259904960804e-05
aa(lp1759
S'storytel'
p1760
aF0.00033293985895456885
aa(lp1761
S'unit'
p1762
aF6.053451980992161e-05
aa(lp1763
S'do'
p1764
aF0.0017555010744877266
aa(lp1765
S'mend'
p1766
aF6.053451980992161e-05
aa(lp1767
S'ganesh'
p1768
aF3.0267259904960804e-05
aa(lp1769
S'drumbeat'
p1770
aF3.0267259904960804e-05
aa(lp1771
S'boatload'
p1772
aF3.0267259904960804e-05
aa(lp1773
S'10th'
p1774
aF3.0267259904960804e-05
aa(lp1775
S'clarke-william'
p1776
aF3.0267259904960804e-05
aa(lp1777
S'idl'
p1778
aF3.0267259904960804e-05
aa(lp1779
S'ismail'
p1780
aF3.0267259904960804e-05
aa(lp1781
S'quest'
p1782
aF9.080177971488241e-05
aa(lp1783
S'astray'
p1784
aF6.053451980992161e-05
aa(lp1785
S'non-mysteri'
p1786
aF3.0267259904960804e-05
aa(lp1787
S'watstein'
p1788
aF3.0267259904960804e-05
aa(lp1789
S'manner'
p1790
aF0.00021187081933472562
aa(lp1791
S'coher'
p1792
aF0.00012106903961984322
aa(lp1793
S'straddl'
p1794
aF3.0267259904960804e-05
aa(lp1795
S'non-bondish'
p1796
aF3.0267259904960804e-05
aa(lp1797
S'blatant'
p1798
aF9.080177971488241e-05
aa(lp1799
S'prefer'
p1800
aF6.053451980992161e-05
aa(lp1801
S'baffl'
p1802
aF0.000151336299524804
aa(lp1803
S'green'
p1804
aF0.00018160355942976482
aa(lp1805
S'settl'
p1806
aF0.000151336299524804
aa(lp1807
S'tit'
p1808
aF3.0267259904960804e-05
aa(lp1809
S'ambival'
p1810
aF3.0267259904960804e-05
aa(lp1811
S'tirad'
p1812
aF3.0267259904960804e-05
aa(lp1813
S'mattel'
p1814
aF3.0267259904960804e-05
aa(lp1815
S'mattei'
p1816
aF6.053451980992161e-05
aa(lp1817
S'dirgelik'
p1818
aF3.0267259904960804e-05
aa(lp1819
S'flashi'
p1820
aF0.00012106903961984322
aa(lp1821
S'all-star'
p1822
aF3.0267259904960804e-05
aa(lp1823
S'professor'
p1824
aF3.0267259904960804e-05
aa(lp1825
S'suppos'
p1826
aF0.00024213807923968643
aa(lp1827
S'scienc'
p1828
aF0.00012106903961984322
aa(lp1829
S'exploit'
p1830
aF0.00033293985895456885
aa(lp1831
S'numb'
p1832
aF6.053451980992161e-05
aa(lp1833
S'everlast'
p1834
aF6.053451980992161e-05
aa(lp1835
S'lobbyist'
p1836
aF3.0267259904960804e-05
aa(lp1837
S'callow'
p1838
aF6.053451980992161e-05
aa(lp1839
S'tier'
p1840
aF3.0267259904960804e-05
aa(lp1841
S'night'
p1842
aF0.00021187081933472562
aa(lp1843
S'garth'
p1844
aF3.0267259904960804e-05
aa(lp1845
S'shaggi'
p1846
aF3.0267259904960804e-05
aa(lp1847
S'chore'
p1848
aF3.0267259904960804e-05
aa(lp1849
S'ill-consid'
p1850
aF3.0267259904960804e-05
aa(lp1851
S'uwe'
p1852
aF3.0267259904960804e-05
aa(lp1853
S'hide'
p1854
aF0.00012106903961984322
aa(lp1855
S'chop'
p1856
aF9.080177971488241e-05
aa(lp1857
S'start'
p1858
aF0.000605345198099216
aa(lp1859
S'bud'
p1860
aF3.0267259904960804e-05
aa(lp1861
S'seal'
p1862
aF9.080177971488241e-05
aa(lp1863
S'parker'
p1864
aF9.080177971488241e-05
aa(lp1865
S'unveil'
p1866
aF3.0267259904960804e-05
aa(lp1867
S'skirmish'
p1868
aF3.0267259904960804e-05
aa(lp1869
S'critic'
p1870
aF0.00024213807923968643
aa(lp1871
S'distil'
p1872
aF6.053451980992161e-05
aa(lp1873
S'do'
p1874
aF0.0017555010744877266
aa(lp1875
S'deal'
p1876
aF0.00024213807923968643
aa(lp1877
S'limit'
p1878
aF0.00021187081933472562
aa(lp1879
S'chicken'
p1880
aF6.053451980992161e-05
aa(lp1881
S'prowess'
p1882
aF3.0267259904960804e-05
aa(lp1883
S'vh1'
p1884
aF3.0267259904960804e-05
aa(lp1885
S'resembl'
p1886
aF0.00018160355942976482
aa(lp1887
S'kilt'
p1888
aF3.0267259904960804e-05
aa(lp1889
S'particip'
p1890
aF9.080177971488241e-05
aa(lp1891
S'flat'
p1892
aF0.00048427615847937286
aa(lp1893
S'klein'
p1894
aF6.053451980992161e-05
aa(lp1895
S'truth-in-advertis'
p1896
aF3.0267259904960804e-05
aa(lp1897
S'slapstick'
p1898
aF0.00018160355942976482
aa(lp1899
S'scooby-doo'
p1900
aF3.0267259904960804e-05
aa(lp1901
S'replac'
p1902
aF9.080177971488241e-05
aa(lp1903
S'swallow'
p1904
aF6.053451980992161e-05
aa(lp1905
S'soap-opera'
p1906
aF3.0267259904960804e-05
aa(lp1907
S'rocki'
p1908
aF6.053451980992161e-05
aa(lp1909
S'tatter'
p1910
aF6.053451980992161e-05
aa(lp1911
S'self-right'
p1912
aF6.053451980992161e-05
aa(lp1913
S'disagre'
p1914
aF6.053451980992161e-05
aa(lp1915
S'princess'
p1916
aF6.053451980992161e-05
aa(lp1917
S'not-nearli'
p1918
aF3.0267259904960804e-05
aa(lp1919
S'triangl'
p1920
aF9.080177971488241e-05
aa(lp1921
S'shirt'
p1922
aF3.0267259904960804e-05
aa(lp1923
S'fleder'
p1924
aF3.0267259904960804e-05
aa(lp1925
S'routin'
p1926
aF0.00021187081933472562
aa(lp1927
S'immatur'
p1928
aF9.080177971488241e-05
aa(lp1929
S'monster'
p1930
aF0.00027240533914464724
aa(lp1931
S'sanctimoni'
p1932
aF6.053451980992161e-05
aa(lp1933
S'encompass'
p1934
aF3.0267259904960804e-05
aa(lp1935
S'51st'
p1936
aF3.0267259904960804e-05
aa(lp1937
S'gener'
p1938
aF0.0006961469778140985
aa(lp1939
S'moral'
p1940
aF0.000302672599049608
aa(lp1941
S'ignor'
p1942
aF0.000151336299524804
aa(lp1943
S'tone'
p1944
aF0.00036320711885952963
aa(lp1945
S'ton'
p1946
aF6.053451980992161e-05
aa(lp1947
S'involv'
p1948
aF0.00033293985895456885
aa(lp1949
S'u.n.'
p1950
aF3.0267259904960804e-05
aa(lp1951
S'involv'
p1952
aF0.00033293985895456885
aa(lp1953
S'more'
p1954
aF0.003995278307454826
aa(lp1955
S'torn'
p1956
aF6.053451980992161e-05
aa(lp1957
S'lugubri'
p1958
aF3.0267259904960804e-05
aa(lp1959
S'resurrect'
p1960
aF6.053451980992161e-05
aa(lp1961
S'astut'
p1962
aF3.0267259904960804e-05
aa(lp1963
S'rosemari'
p1964
aF3.0267259904960804e-05
aa(lp1965
S'knockabout'
p1966
aF3.0267259904960804e-05
aa(lp1967
S'scooter'
p1968
aF3.0267259904960804e-05
aa(lp1969
S'groan'
p1970
aF3.0267259904960804e-05
aa(lp1971
S'involv'
p1972
aF0.00033293985895456885
aa(lp1973
S'poke'
p1974
aF9.080177971488241e-05
aa(lp1975
S'gener'
p1976
aF0.0006961469778140985
aa(lp1977
S'lowli'
p1978
aF3.0267259904960804e-05
aa(lp1979
S'nake'
p1980
aF3.0267259904960804e-05
aa(lp1981
S'laugh'
p1982
aF0.0006658797179091377
aa(lp1983
S'team'
p1984
aF0.00012106903961984322
aa(lp1985
S'evict'
p1986
aF3.0267259904960804e-05
aa(lp1987
S'decod'
p1988
aF3.0267259904960804e-05
aa(lp1989
S'relianc'
p1990
aF6.053451980992161e-05
aa(lp1991
S'necessarili'
p1992
aF0.00012106903961984322
aa(lp1993
S'charmless'
p1994
aF9.080177971488241e-05
aa(lp1995
S'battl'
p1996
aF0.00018160355942976482
aa(lp1997
S'flux'
p1998
aF3.0267259904960804e-05
aa(lp1999
S'sadli'
p2000
aF0.00021187081933472562
aa(lp2001
S'hallmark'
p2002
aF0.000151336299524804
aa(lp2003
S'grow'
p2004
aF0.00036320711885952963
aa(lp2005
S'cold'
p2006
aF0.00033293985895456885
aa(lp2007
S'blind'
p2008
aF9.080177971488241e-05
aa(lp2009
S'spark'
p2010
aF0.00018160355942976482
aa(lp2011
S'copi'
p2012
aF0.000151336299524804
aa(lp2013
S'storytel'
p2014
aF0.00033293985895456885
aa(lp2015
S'chimney'
p2016
aF3.0267259904960804e-05
aa(lp2017
S'fool'
p2018
aF6.053451980992161e-05
aa(lp2019
S'teach'
p2020
aF6.053451980992161e-05
aa(lp2021
S'encomia'
p2022
aF3.0267259904960804e-05
aa(lp2023
S'hermocr'
p2024
aF3.0267259904960804e-05
aa(lp2025
S'cow'
p2026
aF6.053451980992161e-05
aa(lp2027
S'naiv'
p2028
aF6.053451980992161e-05
aa(lp2029
S'resid'
p2030
aF9.080177971488241e-05
aa(lp2031
S'slim'
p2032
aF6.053451980992161e-05
aa(lp2033
S'agent'
p2034
aF6.053451980992161e-05
aa(lp2035
S'finger'
p2036
aF0.00021187081933472562
aa(lp2037
S'concert'
p2038
aF9.080177971488241e-05
aa(lp2039
S'contradictori'
p2040
aF6.053451980992161e-05
aa(lp2041
S'fame'
p2042
aF6.053451980992161e-05
aa(lp2043
S'slap'
p2044
aF0.000151336299524804
aa(lp2045
S'mire'
p2046
aF9.080177971488241e-05
aa(lp2047
S'blond'
p2048
aF6.053451980992161e-05
aa(lp2049
S'jostl'
p2050
aF3.0267259904960804e-05
aa(lp2051
S'racket'
p2052
aF3.0267259904960804e-05
aa(lp2053
S'convent'
p2054
aF0.00027240533914464724
aa(lp2055
S'marker'
p2056
aF3.0267259904960804e-05
aa(lp2057
S'co-writ'
p2058
aF0.00012106903961984322
aa(lp2059
S'merit'
p2060
aF0.000151336299524804
aa(lp2061
S'tread'
p2062
aF9.080177971488241e-05
aa(lp2063
S'fall'
p2064
aF0.0004540088985744121
aa(lp2065
S'bewitch'
p2066
aF3.0267259904960804e-05
aa(lp2067
S'soft-cor'
p2068
aF3.0267259904960804e-05
aa(lp2069
S'humili'
p2070
aF3.0267259904960804e-05
aa(lp2071
S'pedigre'
p2072
aF6.053451980992161e-05
aa(lp2073
S'screenplay'
p2074
aF0.0006356124580041769
aa(lp2075
S'fals'
p2076
aF9.080177971488241e-05
aa(lp2077
S'diari'
p2078
aF6.053451980992161e-05
aa(lp2079
S'hudson'
p2080
aF3.0267259904960804e-05
aa(lp2081
S'mope'
p2082
aF3.0267259904960804e-05
aa(lp2083
S'coast'
p2084
aF3.0267259904960804e-05
aa(lp2085
S'african-american'
p2086
aF6.053451980992161e-05
aa(lp2087
S'peekaboo'
p2088
aF3.0267259904960804e-05
aa(lp2089
S'anni'
p2090
aF3.0267259904960804e-05
aa(lp2091
S'teen-exploit'
p2092
aF3.0267259904960804e-05
aa(lp2093
S'counterpart'
p2094
aF6.053451980992161e-05
aa(lp2095
S'analges'
p2096
aF3.0267259904960804e-05
aa(lp2097
S'ingrati'
p2098
aF6.053451980992161e-05
aa(lp2099
S'strongli'
p2100
aF6.053451980992161e-05
aa(lp2101
S'wall'
p2102
aF3.0267259904960804e-05
aa(lp2103
S'utter'
p2104
aF0.00012106903961984322
aa(lp2105
S'barn-burningli'
p2106
aF3.0267259904960804e-05
aa(lp2107
S'spookili'
p2108
aF3.0267259904960804e-05
aa(lp2109
S'bag'
p2110
aF0.00012106903961984322
aa(lp2111
S'machismo'
p2112
aF6.053451980992161e-05
aa(lp2113
S'kept'
p2114
aF3.0267259904960804e-05
aa(lp2115
S'homicid'
p2116
aF3.0267259904960804e-05
aa(lp2117
S'bodi'
p2118
aF0.00021187081933472562
aa(lp2119
S'freak'
p2120
aF0.00012106903961984322
aa(lp2121
S'quick'
p2122
aF0.00012106903961984322
aa(lp2123
S'foibl'
p2124
aF3.0267259904960804e-05
aa(lp2125
S'denial'
p2126
aF3.0267259904960804e-05
aa(lp2127
S'lantern'
p2128
aF3.0267259904960804e-05
aa(lp2129
S'preemptiv'
p2130
aF3.0267259904960804e-05
aa(lp2131
S'throwaway'
p2132
aF3.0267259904960804e-05
aa(lp2133
S'shapiro'
p2134
aF3.0267259904960804e-05
aa(lp2135
S'hype'
p2136
aF9.080177971488241e-05
aa(lp2137
S'bounc'
p2138
aF6.053451980992161e-05
aa(lp2139
S'martial-art'
p2140
aF3.0267259904960804e-05
aa(lp2141
S'hallmark'
p2142
aF0.000151336299524804
aa(lp2143
S'strive'
p2144
aF6.053451980992161e-05
aa(lp2145
S'themat'
p2146
aF0.00012106903961984322
aa(lp2147
S'boot'
p2148
aF6.053451980992161e-05
aa(lp2149
S'opera'
p2150
aF0.00036320711885952963
aa(lp2151
S'bug'
p2152
aF6.053451980992161e-05
aa(lp2153
S'guilt-trip'
p2154
aF3.0267259904960804e-05
aa(lp2155
S'situat'
p2156
aF0.00033293985895456885
aa(lp2157
S'stretch'
p2158
aF0.00021187081933472562
aa(lp2159
S'demand'
p2160
aF0.00012106903961984322
aa(lp2161
S'mcadam'
p2162
aF3.0267259904960804e-05
aa(lp2163
S'soldier'
p2164
aF0.00012106903961984322
aa(lp2165
S'everlast'
p2166
aF6.053451980992161e-05
aa(lp2167
S'ill-conceiv'
p2168
aF6.053451980992161e-05
aa(lp2169
S'consign'
p2170
aF3.0267259904960804e-05
aa(lp2171
S'exercis'
p2172
aF0.0004540088985744121
aa(lp2173
S'repeat'
p2174
aF9.080177971488241e-05
aa(lp2175
S'bog'
p2176
aF9.080177971488241e-05
aa(lp2177
S'pray'
p2178
aF6.053451980992161e-05
aa(lp2179
S'lyne'
p2180
aF9.080177971488241e-05
aa(lp2181
S'amp'
p2182
aF3.0267259904960804e-05
aa(lp2183
S'sociolog'
p2184
aF6.053451980992161e-05
aa(lp2185
S'pseudo-philosoph'
p2186
aF3.0267259904960804e-05
aa(lp2187
S'dri'
p2188
aF0.00021187081933472562
aa(lp2189
S'auto-critiqu'
p2190
aF3.0267259904960804e-05
aa(lp2191
S'resid'
p2192
aF9.080177971488241e-05
aa(lp2193
S'play'
p2194
aF0.0009988195768637065
aa(lp2195
S'suspect'
p2196
aF0.00021187081933472562
aa(lp2197
S'bracingli'
p2198
aF3.0267259904960804e-05
aa(lp2199
S'infuriatingli'
p2200
aF3.0267259904960804e-05
aa(lp2201
S'race'
p2202
aF0.000151336299524804
aa(lp2203
S'goldman'
p2204
aF3.0267259904960804e-05
aa(lp2205
S'aveng'
p2206
aF3.0267259904960804e-05
aa(lp2207
S'freud'
p2208
aF3.0267259904960804e-05
aa(lp2209
S'overladen'
p2210
aF3.0267259904960804e-05
aa(lp2211
S'short'
p2212
aF0.00048427615847937286
aa(lp2213
S'leer'
p2214
aF3.0267259904960804e-05
aa(lp2215
S'forum'
p2216
aF3.0267259904960804e-05
aa(lp2217
S'princ'
p2218
aF3.0267259904960804e-05
aa(lp2219
S'defens'
p2220
aF3.0267259904960804e-05
aa(lp2221
S'mighti'
p2222
aF3.0267259904960804e-05
aa(lp2223
S'quick-buck'
p2224
aF3.0267259904960804e-05
aa(lp2225
S'shell'
p2226
aF3.0267259904960804e-05
aa(lp2227
S'typic'
p2228
aF0.000151336299524804
aa(lp2229
S'mock'
p2230
aF3.0267259904960804e-05
aa(lp2231
S'hotel'
p2232
aF6.053451980992161e-05
aa(lp2233
S'dead-undead'
p2234
aF3.0267259904960804e-05
aa(lp2235
S'stay'
p2236
aF0.00024213807923968643
aa(lp2237
S'fool'
p2238
aF6.053451980992161e-05
aa(lp2239
S'moan'
p2240
aF6.053451980992161e-05
aa(lp2241
S'shatner'
p2242
aF3.0267259904960804e-05
aa(lp2243
S'nightmar'
p2244
aF9.080177971488241e-05
aa(lp2245
S'self-glorif'
p2246
aF3.0267259904960804e-05
aa(lp2247
S'lukewarm'
p2248
aF3.0267259904960804e-05
aa(lp2249
S'storytel'
p2250
aF0.00033293985895456885
aa(lp2251
S'awkwardli'
p2252
aF9.080177971488241e-05
aa(lp2253
S'big-screen'
p2254
aF6.053451980992161e-05
aa(lp2255
S'grizzl'
p2256
aF3.0267259904960804e-05
aa(lp2257
S'trap'
p2258
aF0.00024213807923968643
aa(lp2259
S'clunki'
p2260
aF6.053451980992161e-05
aa(lp2261
S'rant'
p2262
aF3.0267259904960804e-05
aa(lp2263
S'grate'
p2264
aF0.000151336299524804
aa(lp2265
S'moldy-oldi'
p2266
aF3.0267259904960804e-05
aa(lp2267
S'water'
p2268
aF0.00021187081933472562
aa(lp2269
S'maggio'
p2270
aF3.0267259904960804e-05
aa(lp2271
S'salt-of-the-earth'
p2272
aF3.0267259904960804e-05
aa(lp2273
S'sympathi'
p2274
aF0.000151336299524804
aa(lp2275
S'appli'
p2276
aF9.080177971488241e-05
aa(lp2277
S'waterboy'
p2278
aF3.0267259904960804e-05
aa(lp2279
S'engorg'
p2280
aF3.0267259904960804e-05
aa(lp2281
S'cockey'
p2282
aF3.0267259904960804e-05
aa(lp2283
S'done-that'
p2284
aF3.0267259904960804e-05
aa(lp2285
S'spread'
p2286
aF6.053451980992161e-05
aa(lp2287
S'underdevelop'
p2288
aF3.0267259904960804e-05
aa(lp2289
S'action-movi'
p2290
aF3.0267259904960804e-05
aa(lp2291
S'critic-proof'
p2292
aF3.0267259904960804e-05
aa(lp2293
S'franchis'
p2294
aF0.00012106903961984322
aa(lp2295
S'mummi'
p2296
aF6.053451980992161e-05
aa(lp2297
S'anton'
p2298
aF3.0267259904960804e-05
aa(lp2299
S'pandemonium'
p2300
aF3.0267259904960804e-05
aa(lp2301
S'embellish'
p2302
aF3.0267259904960804e-05
aa(lp2303
S'toward'
p2304
aF0.00024213807923968643
aa(lp2305
S'milk'
p2306
aF9.080177971488241e-05
aa(lp2307
S'mild'
p2308
aF0.00012106903961984322
aa(lp2309
S'teeth'
p2310
aF9.080177971488241e-05
aa(lp2311
S'conclus'
p2312
aF0.00018160355942976482
aa(lp2313
S'escap'
p2314
aF0.00024213807923968643
aa(lp2315
S'foolish'
p2316
aF6.053451980992161e-05
aa(lp2317
S'start'
p2318
aF0.000605345198099216
aa(lp2319
S'mine'
p2320
aF6.053451980992161e-05
aa(lp2321
S'scienc'
p2322
aF0.00012106903961984322
aa(lp2323
S'indiffer'
p2324
aF6.053451980992161e-05
aa(lp2325
S'skimpi'
p2326
aF3.0267259904960804e-05
aa(lp2327
S'conclus'
p2328
aF0.00018160355942976482
aa(lp2329
S'mire'
p2330
aF9.080177971488241e-05
aa(lp2331
S'besid'
p2332
aF6.053451980992161e-05
aa(lp2333
S'shoulder'
p2334
aF9.080177971488241e-05
aa(lp2335
S'miss'
p2336
aF0.0005448106782892945
aa(lp2337
S'hartley'
p2338
aF9.080177971488241e-05
aa(lp2339
S'unorigin'
p2340
aF6.053451980992161e-05
aa(lp2341
S'editor'
p2342
aF3.0267259904960804e-05
aa(lp2343
S'third'
p2344
aF9.080177971488241e-05
aa(lp2345
S'scenario'
p2346
aF9.080177971488241e-05
aa(lp2347
S'desir'
p2348
aF0.00018160355942976482
aa(lp2349
S'desir'
p2350
aF0.00018160355942976482
aa(lp2351
S'monster'
p2352
aF0.00027240533914464724
aa(lp2353
S'merit'
p2354
aF0.000151336299524804
aa(lp2355
S'cutting-room'
p2356
aF3.0267259904960804e-05
aa(lp2357
S'quintet'
p2358
aF3.0267259904960804e-05
aa(lp2359
S'shag'
p2360
aF3.0267259904960804e-05
aa(lp2361
S'ransack'
p2362
aF6.053451980992161e-05
aa(lp2363
S'webcast'
p2364
aF3.0267259904960804e-05
aa(lp2365
S'boyz'
p2366
aF3.0267259904960804e-05
aa(lp2367
S'durabl'
p2368
aF3.0267259904960804e-05
aa(lp2369
S'uninvent'
p2370
aF3.0267259904960804e-05
aa(lp2371
S'ambit'
p2372
aF9.080177971488241e-05
aa(lp2373
S'small-screen'
p2374
aF3.0267259904960804e-05
aa(lp2375
S'leeri'
p2376
aF3.0267259904960804e-05
aa(lp2377
S'ruin'
p2378
aF6.053451980992161e-05
aa(lp2379
S'factor'
p2380
aF9.080177971488241e-05
aa(lp2381
S'dungeon'
p2382
aF3.0267259904960804e-05
aa(lp2383
S'ship'
p2384
aF6.053451980992161e-05
aa(lp2385
S'subsid'
p2386
aF3.0267259904960804e-05
aa(lp2387
S'resurrect'
p2388
aF6.053451980992161e-05
aa(lp2389
S'oh-those-wacky-brit'
p2390
aF3.0267259904960804e-05
aa(lp2391
S'cheat'
p2392
aF6.053451980992161e-05
aa(lp2393
S'rail'
p2394
aF3.0267259904960804e-05
aa(lp2395
S'resurrect'
p2396
aF6.053451980992161e-05
aa(lp2397
S'shoe'
p2398
aF3.0267259904960804e-05
aa(lp2399
S'chump'
p2400
aF3.0267259904960804e-05
aa(lp2401
S'frenet'
p2402
aF3.0267259904960804e-05
aa(lp2403
S'resid'
p2404
aF9.080177971488241e-05
aa(lp2405
S'daytim'
p2406
aF6.053451980992161e-05
aa(lp2407
S'mine'
p2408
aF6.053451980992161e-05
aa(lp2409
S'suspend'
p2410
aF6.053451980992161e-05
aa(lp2411
S'afterthought'
p2412
aF6.053451980992161e-05
aa(lp2413
S'fall'
p2414
aF0.0004540088985744121
aa(lp2415
S'pretens'
p2416
aF0.00012106903961984322
aa(lp2417
S'race'
p2418
aF0.000151336299524804
aa(lp2419
S'misty-ey'
p2420
aF3.0267259904960804e-05
aa(lp2421
S'fame'
p2422
aF6.053451980992161e-05
aa(lp2423
S'evil'
p2424
aF0.00021187081933472562
aa(lp2425
S'fight'
p2426
aF0.00021187081933472562
aa(lp2427
S'glumli'
p2428
aF3.0267259904960804e-05
aa(lp2429
S'distressingli'
p2430
aF3.0267259904960804e-05
aa(lp2431
S'arrog'
p2432
aF6.053451980992161e-05
aa(lp2433
S'plotlin'
p2434
aF6.053451980992161e-05
aa(lp2435
S'lump'
p2436
aF9.080177971488241e-05
aa(lp2437
S'ankle-deep'
p2438
aF3.0267259904960804e-05
aa(lp2439
S'mulan'
p2440
aF3.0267259904960804e-05
aa(lp2441
S'4\\/5th'
p2442
aF3.0267259904960804e-05
aa(lp2443
S'fart'
p2444
aF6.053451980992161e-05
aa(lp2445
S'piano'
p2446
aF6.053451980992161e-05
aa(lp2447
S'play'
p2448
aF0.0009988195768637065
aa(lp2449
S'reactionari'
p2450
aF6.053451980992161e-05
aa(lp2451
S'cube'
p2452
aF6.053451980992161e-05
aa(lp2453
S'char'
p2454
aF3.0267259904960804e-05
aa(lp2455
S'aircraft'
p2456
aF3.0267259904960804e-05
aa(lp2457
S'80-minut'
p2458
aF3.0267259904960804e-05
aa(lp2459
S'gener'
p2460
aF0.0006961469778140985
aa(lp2461
S'twaddl'
p2462
aF6.053451980992161e-05
aa(lp2463
S'complain'
p2464
aF3.0267259904960804e-05
aa(lp2465
S'midsect'
p2466
aF3.0267259904960804e-05
aa(lp2467
S'terri'
p2468
aF6.053451980992161e-05
aa(lp2469
S'prime'
p2470
aF9.080177971488241e-05
aa(lp2471
S'putter'
p2472
aF3.0267259904960804e-05
aa(lp2473
S'too-hot-for-tv'
p2474
aF3.0267259904960804e-05
aa(lp2475
S'suspect'
p2476
aF0.00021187081933472562
aa(lp2477
S'zealous'
p2478
aF3.0267259904960804e-05
aa(lp2479
S'shrek'
p2480
aF3.0267259904960804e-05
aa(lp2481
S'sprout'
p2482
aF3.0267259904960804e-05
aa(lp2483
S'aspir'
p2484
aF9.080177971488241e-05
aa(lp2485
S'joker'
p2486
aF3.0267259904960804e-05
aa(lp2487
S'teen-gang'
p2488
aF3.0267259904960804e-05
aa(lp2489
S'two-hour-and-fifteen-minut'
p2490
aF3.0267259904960804e-05
aa(lp2491
S'ghost'
p2492
aF0.000151336299524804
aa(lp2493
S'biographi'
p2494
aF3.0267259904960804e-05
aa(lp2495
S'trap'
p2496
aF0.00024213807923968643
aa(lp2497
S'knockout'
p2498
aF3.0267259904960804e-05
aa(lp2499
S'junki'
p2500
aF6.053451980992161e-05
aa(lp2501
S'trot'
p2502
aF6.053451980992161e-05
aa(lp2503
S'falter'
p2504
aF6.053451980992161e-05
aa(lp2505
S'blackout'
p2506
aF3.0267259904960804e-05
aa(lp2507
S'unhidden'
p2508
aF3.0267259904960804e-05
aa(lp2509
S'leav'
p2510
aF0.0006356124580041769
aa(lp2511
S'milquetoast'
p2512
aF3.0267259904960804e-05
aa(lp2513
S'alien'
p2514
aF0.00024213807923968643
aa(lp2515
S'successor'
p2516
aF3.0267259904960804e-05
aa(lp2517
S'in-jok'
p2518
aF3.0267259904960804e-05
aa(lp2519
S'wishy-washi'
p2520
aF3.0267259904960804e-05
aa(lp2521
S'depth'
p2522
aF0.00018160355942976482
aa(lp2523
S'trip'
p2524
aF0.000151336299524804
aa(lp2525
S'heritag'
p2526
aF3.0267259904960804e-05
aa(lp2527
S'realism'
p2528
aF0.000151336299524804
aa(lp2529
S'player'
p2530
aF0.00012106903961984322
aa(lp2531
S'impressionist'
p2532
aF3.0267259904960804e-05
aa(lp2533
S'witch'
p2534
aF0.00018160355942976482
aa(lp2535
S'green'
p2536
aF0.00018160355942976482
aa(lp2537
S'swirl'
p2538
aF3.0267259904960804e-05
aa(lp2539
S'hurt'
p2540
aF6.053451980992161e-05
aa(lp2541
S'1973'
p2542
aF3.0267259904960804e-05
aa(lp2543
S'1975'
p2544
aF6.053451980992161e-05
aa(lp2545
S'sentiment'
p2546
aF0.0004540088985744121
aa(lp2547
S'1986'
p2548
aF3.0267259904960804e-05
aa(lp2549
S'insati'
p2550
aF3.0267259904960804e-05
aa(lp2551
S'bazadona'
p2552
aF3.0267259904960804e-05
aa(lp2553
S'customarili'
p2554
aF3.0267259904960804e-05
aa(lp2555
S'kick'
p2556
aF0.00021187081933472562
aa(lp2557
S'kid'
p2558
aF0.0006961469778140985
aa(lp2559
S'clumsi'
p2560
aF0.00012106903961984322
aa(lp2561
S'incis'
p2562
aF6.053451980992161e-05
aa(lp2563
S'shake'
p2564
aF0.000151336299524804
aa(lp2565
S'jostl'
p2566
aF3.0267259904960804e-05
aa(lp2567
S'shame'
p2568
aF0.00018160355942976482
aa(lp2569
S'1938'
p2570
aF3.0267259904960804e-05
aa(lp2571
S'leaki'
p2572
aF6.053451980992161e-05
aa(lp2573
S'kilt'
p2574
aF3.0267259904960804e-05
aa(lp2575
S'1959'
p2576
aF3.0267259904960804e-05
aa(lp2577
S'jelli'
p2578
aF3.0267259904960804e-05
aa(lp2579
S'heartland'
p2580
aF3.0267259904960804e-05
aa(lp2581
S'crippl'
p2582
aF6.053451980992161e-05
aa(lp2583
S'wish'
p2584
aF0.00021187081933472562
aa(lp2585
S'brawn'
p2586
aF3.0267259904960804e-05
aa(lp2587
S'infatu'
p2588
aF3.0267259904960804e-05
aa(lp2589
S'confus'
p2590
aF0.00021187081933472562
aa(lp2591
S'basi'
p2592
aF6.053451980992161e-05
aa(lp2593
S'drop'
p2594
aF9.080177971488241e-05
aa(lp2595
S'entiti'
p2596
aF3.0267259904960804e-05
aa(lp2597
S'jar'
p2598
aF0.00012106903961984322
aa(lp2599
S'guilt'
p2600
aF3.0267259904960804e-05
aa(lp2601
S'weari'
p2602
aF3.0267259904960804e-05
aa(lp2603
S'wear'
p2604
aF0.00021187081933472562
aa(lp2605
S'brat'
p2606
aF3.0267259904960804e-05
aa(lp2607
S'icon'
p2608
aF6.053451980992161e-05
aa(lp2609
S'resid'
p2610
aF9.080177971488241e-05
aa(lp2611
S'gener'
p2612
aF0.0006961469778140985
aa(lp2613
S'save'
p2614
aF0.000302672599049608
aa(lp2615
S'hungry-man'
p2616
aF3.0267259904960804e-05
aa(lp2617
S'sticki'
p2618
aF6.053451980992161e-05
aa(lp2619
S'skit-com'
p2620
aF3.0267259904960804e-05
aa(lp2621
S'life-alt'
p2622
aF3.0267259904960804e-05
aa(lp2623
S'hallucinogen'
p2624
aF3.0267259904960804e-05
aa(lp2625
S'assign'
p2626
aF6.053451980992161e-05
aa(lp2627
S'scoob'
p2628
aF3.0267259904960804e-05
aa(lp2629
S'baggag'
p2630
aF6.053451980992161e-05
aa(lp2631
S'friend'
p2632
aF0.00021187081933472562
aa(lp2633
S'curiou'
p2634
aF6.053451980992161e-05
aa(lp2635
S'leontin'
p2636
aF3.0267259904960804e-05
aa(lp2637
S'whitewash'
p2638
aF3.0267259904960804e-05
aa(lp2639
S'downfal'
p2640
aF3.0267259904960804e-05
aa(lp2641
S'rave'
p2642
aF3.0267259904960804e-05
aa(lp2643
S'themat'
p2644
aF0.00012106903961984322
aa(lp2645
S'drab'
p2646
aF6.053451980992161e-05
aa(lp2647
S'stall'
p2648
aF3.0267259904960804e-05
aa(lp2649
S'trot'
p2650
aF6.053451980992161e-05
aa(lp2651
S'horror\\/act'
p2652
aF3.0267259904960804e-05
aa(lp2653
S'ultim'
p2654
aF0.000938285057053785
aa(lp2655
S'enact'
p2656
aF9.080177971488241e-05
aa(lp2657
S'furiou'
p2658
aF3.0267259904960804e-05
aa(lp2659
S'kid'
p2660
aF0.0006961469778140985
aa(lp2661
S'franki'
p2662
aF3.0267259904960804e-05
aa(lp2663
S'waif'
p2664
aF3.0267259904960804e-05
aa(lp2665
S'loui'
p2666
aF3.0267259904960804e-05
aa(lp2667
S'ringu'
p2668
aF6.053451980992161e-05
aa(lp2669
S'limit'
p2670
aF0.00021187081933472562
aa(lp2671
S'convent'
p2672
aF0.00027240533914464724
aa(lp2673
S'vulner'
p2674
aF6.053451980992161e-05
aa(lp2675
S'disclos'
p2676
aF3.0267259904960804e-05
aa(lp2677
S'fire-breath'
p2678
aF3.0267259904960804e-05
aa(lp2679
S'bodi'
p2680
aF0.00021187081933472562
aa(lp2681
S'campion'
p2682
aF3.0267259904960804e-05
aa(lp2683
S'bode'
p2684
aF3.0267259904960804e-05
aa(lp2685
S'straight-to-video'
p2686
aF3.0267259904960804e-05
aa(lp2687
S'wall'
p2688
aF3.0267259904960804e-05
aa(lp2689
S'ignor'
p2690
aF0.000151336299524804
aa(lp2691
S'hairdo'
p2692
aF3.0267259904960804e-05
aa(lp2693
S'wake'
p2694
aF9.080177971488241e-05
aa(lp2695
S'bog'
p2696
aF9.080177971488241e-05
aa(lp2697
S'park'
p2698
aF0.00012106903961984322
aa(lp2699
S'wildest'
p2700
aF3.0267259904960804e-05
aa(lp2701
S'player'
p2702
aF0.00012106903961984322
aa(lp2703
S'appropri'
p2704
aF9.080177971488241e-05
aa(lp2705
S'episod'
p2706
aF0.00033293985895456885
aa(lp2707
S'thrust'
p2708
aF6.053451980992161e-05
aa(lp2709
S'oscar-win'
p2710
aF3.0267259904960804e-05
aa(lp2711
S'decor'
p2712
aF3.0267259904960804e-05
aa(lp2713
S'fight'
p2714
aF0.00021187081933472562
aa(lp2715
S'brain'
p2716
aF0.000151336299524804
aa(lp2717
S'turf'
p2718
aF6.053451980992161e-05
aa(lp2719
S'figur'
p2720
aF0.00024213807923968643
aa(lp2721
S'northwest'
p2722
aF3.0267259904960804e-05
aa(lp2723
S'batter'
p2724
aF3.0267259904960804e-05
aa(lp2725
S'episod'
p2726
aF0.00033293985895456885
aa(lp2727
S'chuckl'
p2728
aF9.080177971488241e-05
aa(lp2729
S'bout'
p2730
aF3.0267259904960804e-05
aa(lp2731
S'authent'
p2732
aF0.00012106903961984322
aa(lp2733
S'opera'
p2734
aF0.00036320711885952963
aa(lp2735
S'accent'
p2736
aF0.00018160355942976482
aa(lp2737
S'tight'
p2738
aF6.053451980992161e-05
aa(lp2739
S'leon'
p2740
aF6.053451980992161e-05
aa(lp2741
S'length'
p2742
aF0.00024213807923968643
aa(lp2743
S'brand'
p2744
aF6.053451980992161e-05
aa(lp2745
S'monster'
p2746
aF0.00027240533914464724
aa(lp2747
S'midnight'
p2748
aF6.053451980992161e-05
aa(lp2749
S'grate'
p2750
aF0.000151336299524804
aa(lp2751
S'thrown'
p2752
aF6.053451980992161e-05
aa(lp2753
S'succeed'
p2754
aF0.00012106903961984322
aa(lp2755
S'sharpen'
p2756
aF3.0267259904960804e-05
aa(lp2757
S'friend'
p2758
aF0.00021187081933472562
aa(lp2759
S'wash'
p2760
aF6.053451980992161e-05
aa(lp2761
S'critiqu'
p2762
aF9.080177971488241e-05
aa(lp2763
S'soapi'
p2764
aF3.0267259904960804e-05
aa(lp2765
S'sexism'
p2766
aF3.0267259904960804e-05
aa(lp2767
S'observ'
p2768
aF0.00024213807923968643
aa(lp2769
S'neo-noir'
p2770
aF3.0267259904960804e-05
aa(lp2771
S'surface-effect'
p2772
aF3.0267259904960804e-05
aa(lp2773
S'reassembl'
p2774
aF3.0267259904960804e-05
aa(lp2775
S'bitten'
p2776
aF3.0267259904960804e-05
aa(lp2777
S'leroy'
p2778
aF3.0267259904960804e-05
aa(lp2779
S'teen-speak'
p2780
aF3.0267259904960804e-05
aa(lp2781
S'defin'
p2782
aF9.080177971488241e-05
aa(lp2783
S'twinkly-ey'
p2784
aF3.0267259904960804e-05
aa(lp2785
S'rowdi'
p2786
aF0.00012106903961984322
aa(lp2787
S'enchant'
p2788
aF6.053451980992161e-05
aa(lp2789
S'bushel'
p2790
aF3.0267259904960804e-05
aa(lp2791
S'climat'
p2792
aF3.0267259904960804e-05
aa(lp2793
S'scarier'
p2794
aF6.053451980992161e-05
aa(lp2795
S'goofi'
p2796
aF0.00021187081933472562
aa(lp2797
S'distil'
p2798
aF6.053451980992161e-05
aa(lp2799
S'haut'
p2800
aF3.0267259904960804e-05
aa(lp2801
S'collinwood'
p2802
aF6.053451980992161e-05
aa(lp2803
S'hey'
p2804
aF6.053451980992161e-05
aa(lp2805
S'hem'
p2806
aF6.053451980992161e-05
aa(lp2807
S'juic'
p2808
aF3.0267259904960804e-05
aa(lp2809
S'autopilot'
p2810
aF3.0267259904960804e-05
aa(lp2811
S'sedat'
p2812
aF3.0267259904960804e-05
aa(lp2813
S'motiv'
p2814
aF0.000151336299524804
aa(lp2815
S'fabian'
p2816
aF3.0267259904960804e-05
aa(lp2817
S'mafia'
p2818
aF3.0267259904960804e-05
aa(lp2819
S'stifl'
p2820
aF9.080177971488241e-05
aa(lp2821
S'night'
p2822
aF0.00021187081933472562
aa(lp2823
S'impenetr'
p2824
aF6.053451980992161e-05
aa(lp2825
S'alien'
p2826
aF0.00024213807923968643
aa(lp2827
S'weep'
p2828
aF3.0267259904960804e-05
aa(lp2829
S'week'
p2830
aF0.00018160355942976482
aa(lp2831
S'schmaltz'
p2832
aF6.053451980992161e-05
aa(lp2833
S'surfacey'
p2834
aF3.0267259904960804e-05
aa(lp2835
S'goodli'
p2836
aF3.0267259904960804e-05
aa(lp2837
S'slasher'
p2838
aF6.053451980992161e-05
aa(lp2839
S'rekindl'
p2840
aF3.0267259904960804e-05
aa(lp2841
S'weak'
p2842
aF0.00021187081933472562
aa(lp2843
S'wear'
p2844
aF0.00021187081933472562
aa(lp2845
S'switch'
p2846
aF3.0267259904960804e-05
aa(lp2847
S'probat'
p2848
aF3.0267259904960804e-05
aa(lp2849
S'despit'
p2850
aF0.0006356124580041769
aa(lp2851
S'faceti'
p2852
aF3.0267259904960804e-05
aa(lp2853
S'smack'
p2854
aF6.053451980992161e-05
aa(lp2855
S'decter'
p2856
aF3.0267259904960804e-05
aa(lp2857
S'taglin'
p2858
aF3.0267259904960804e-05
aa(lp2859
S'danish'
p2860
aF3.0267259904960804e-05
aa(lp2861
S'young-gun'
p2862
aF3.0267259904960804e-05
aa(lp2863
S'jumbl'
p2864
aF9.080177971488241e-05
aa(lp2865
S'slogan'
p2866
aF3.0267259904960804e-05
aa(lp2867
S'dog'
p2868
aF0.000302672599049608
aa(lp2869
S'irish'
p2870
aF6.053451980992161e-05
aa(lp2871
S'pessimist'
p2872
aF3.0267259904960804e-05
aa(lp2873
S'sag'
p2874
aF3.0267259904960804e-05
aa(lp2875
S'horton'
p2876
aF3.0267259904960804e-05
aa(lp2877
S'nifti'
p2878
aF6.053451980992161e-05
aa(lp2879
S'player'
p2880
aF0.00012106903961984322
aa(lp2881
S'give-me-an-oscar'
p2882
aF3.0267259904960804e-05
aa(lp2883
S'play'
p2884
aF0.0009988195768637065
aa(lp2885
S'ick'
p2886
aF3.0267259904960804e-05
aa(lp2887
S'expand'
p2888
aF6.053451980992161e-05
aa(lp2889
S'hill'
p2890
aF9.080177971488241e-05
aa(lp2891
S'bedevil'
p2892
aF3.0267259904960804e-05
aa(lp2893
S'warfar'
p2894
aF3.0267259904960804e-05
aa(lp2895
S'bolero'
p2896
aF3.0267259904960804e-05
aa(lp2897
S'vagu'
p2898
aF0.00018160355942976482
aa(lp2899
S'puff'
p2900
aF3.0267259904960804e-05
aa(lp2901
S'privat'
p2902
aF9.080177971488241e-05
aa(lp2903
S'snow-and-stuntwork'
p2904
aF3.0267259904960804e-05
aa(lp2905
S'underscor'
p2906
aF6.053451980992161e-05
aa(lp2907
S'lost'
p2908
aF0.00021187081933472562
aa(lp2909
S'nausea'
p2910
aF3.0267259904960804e-05
aa(lp2911
S'smash'
p2912
aF6.053451980992161e-05
aa(lp2913
S'hostil'
p2914
aF3.0267259904960804e-05
aa(lp2915
S'schticki'
p2916
aF3.0267259904960804e-05
aa(lp2917
S'prefabr'
p2918
aF3.0267259904960804e-05
aa(lp2919
S'amour'
p2920
aF3.0267259904960804e-05
aa(lp2921
S'load'
p2922
aF0.00012106903961984322
aa(lp2923
S'climb'
p2924
aF3.0267259904960804e-05
aa(lp2925
S'gut-bust'
p2926
aF3.0267259904960804e-05
aa(lp2927
S'kidnap'
p2928
aF3.0267259904960804e-05
aa(lp2929
S'bread'
p2930
aF6.053451980992161e-05
aa(lp2931
S'conscious'
p2932
aF6.053451980992161e-05
aa(lp2933
S'week'
p2934
aF0.00018160355942976482
aa(lp2935
S'despic'
p2936
aF3.0267259904960804e-05
aa(lp2937
S'drain'
p2938
aF6.053451980992161e-05
aa(lp2939
S'mysteri'
p2940
aF0.00033293985895456885
aa(lp2941
S'ladder'
p2942
aF6.053451980992161e-05
aa(lp2943
S'underutil'
p2944
aF3.0267259904960804e-05
aa(lp2945
S'perpetu'
p2946
aF6.053451980992161e-05
aa(lp2947
S'monotoni'
p2948
aF3.0267259904960804e-05
aa(lp2949
S'indie-head'
p2950
aF3.0267259904960804e-05
aa(lp2951
S'monoton'
p2952
aF6.053451980992161e-05
aa(lp2953
S'defens'
p2954
aF3.0267259904960804e-05
aa(lp2955
S'contain'
p2956
aF0.00012106903961984322
aa(lp2957
S'clip'
p2958
aF3.0267259904960804e-05
aa(lp2959
S'hobnail'
p2960
aF3.0267259904960804e-05
aa(lp2961
S'attempt'
p2962
aF0.0005750779381942553
aa(lp2963
S'vagu'
p2964
aF0.00018160355942976482
aa(lp2965
S'loco'
p2966
aF3.0267259904960804e-05
aa(lp2967
S'eroti-comedi'
p2968
aF3.0267259904960804e-05
aa(lp2969
S'compar'
p2970
aF0.00012106903961984322
aa(lp2971
S'moral'
p2972
aF0.000302672599049608
aa(lp2973
S'jesu'
p2974
aF3.0267259904960804e-05
aa(lp2975
S'distil'
p2976
aF6.053451980992161e-05
aa(lp2977
S'magic'
p2978
aF0.00024213807923968643
aa(lp2979
S'guest'
p2980
aF6.053451980992161e-05
aa(lp2981
S'short'
p2982
aF0.00048427615847937286
aa(lp2983
S'harlem'
p2984
aF3.0267259904960804e-05
aa(lp2985
S'co-written'
p2986
aF9.080177971488241e-05
aa(lp2987
S'witch'
p2988
aF0.00018160355942976482
aa(lp2989
S'personifi'
p2990
aF3.0267259904960804e-05
aa(lp2991
S'none-too-origin'
p2992
aF3.0267259904960804e-05
aa(lp2993
S'hotel'
p2994
aF6.053451980992161e-05
aa(lp2995
S'groundbreak'
p2996
aF3.0267259904960804e-05
aa(lp2997
S'uninspir'
p2998
aF0.000151336299524804
aa(lp2999
S'stalk'
p3000
aF3.0267259904960804e-05
aa(lp3001
S'inde'
p3002
aF0.00021187081933472562
aa(lp3003
S'concentr'
p3004
aF6.053451980992161e-05
aa(lp3005
S'concentr'
p3006
aF6.053451980992161e-05
aa(lp3007
S'fabl'
p3008
aF6.053451980992161e-05
aa(lp3009
S'obscur'
p3010
aF0.00012106903961984322
aa(lp3011
S"'53"
p3012
aF3.0267259904960804e-05
aa(lp3013
S'jess'
p3014
aF3.0267259904960804e-05
aa(lp3015
S'deniro'
p3016
aF6.053451980992161e-05
aa(lp3017
S'blah'
p3018
aF3.0267259904960804e-05
aa(lp3019
S'romanek'
p3020
aF6.053451980992161e-05
aa(lp3021
S'bled'
p3022
aF3.0267259904960804e-05
aa(lp3023
S'expand'
p3024
aF6.053451980992161e-05
aa(lp3025
S'quickli'
p3026
aF0.00021187081933472562
aa(lp3027
S'unhappi'
p3028
aF6.053451980992161e-05
aa(lp3029
S'mystif'
p3030
aF3.0267259904960804e-05
aa(lp3031
S'freeli'
p3032
aF3.0267259904960804e-05
aa(lp3033
S'crib'
p3034
aF3.0267259904960804e-05
aa(lp3035
S'squander'
p3036
aF0.00018160355942976482
aa(lp3037
S'husband-and-wif'
p3038
aF3.0267259904960804e-05
aa(lp3039
S'sing'
p3040
aF6.053451980992161e-05
aa(lp3041
S'delus'
p3042
aF3.0267259904960804e-05
aa(lp3043
S'disease-of-the-week'
p3044
aF3.0267259904960804e-05
aa(lp3045
S'nurs'
p3046
aF3.0267259904960804e-05
aa(lp3047
S'observ'
p3048
aF0.00024213807923968643
aa(lp3049
S'stoke'
p3050
aF3.0267259904960804e-05
aa(lp3051
S'duct'
p3052
aF3.0267259904960804e-05
aa(lp3053
S'bidder'
p3054
aF3.0267259904960804e-05
aa(lp3055
S'leaden'
p3056
aF6.053451980992161e-05
aa(lp3057
S'has-been'
p3058
aF3.0267259904960804e-05
aa(lp3059
S'mysteri'
p3060
aF0.00033293985895456885
aa(lp3061
S'mick'
p3062
aF3.0267259904960804e-05
aa(lp3063
S'uninvolv'
p3064
aF6.053451980992161e-05
aa(lp3065
S'pg-13'
p3066
aF6.053451980992161e-05
aa(lp3067
S'prime'
p3068
aF9.080177971488241e-05
aa(lp3069
S'sit'
p3070
aF0.00048427615847937286
aa(lp3071
S'unseen'
p3072
aF3.0267259904960804e-05
aa(lp3073
S'sociolog'
p3074
aF6.053451980992161e-05
aa(lp3075
S'hand'
p3076
aF0.000302672599049608
aa(lp3077
S'resembl'
p3078
aF0.00018160355942976482
aa(lp3079
S'smear'
p3080
aF6.053451980992161e-05
aa(lp3081
S'smutti'
p3082
aF3.0267259904960804e-05
aa(lp3083
S'laugh-fre'
p3084
aF3.0267259904960804e-05
aa(lp3085
S'bruckheimeresqu'
p3086
aF3.0267259904960804e-05
aa(lp3087
S'avail'
p3088
aF3.0267259904960804e-05
aa(lp3089
S'xerox'
p3090
aF6.053451980992161e-05
aa(lp3091
S'defin'
p3092
aF9.080177971488241e-05
aa(lp3093
S'lullabi'
p3094
aF3.0267259904960804e-05
aa(lp3095
S'hopkin'
p3096
aF0.00012106903961984322
aa(lp3097
S'low-brow'
p3098
aF3.0267259904960804e-05
aa(lp3099
S'profan'
p3100
aF9.080177971488241e-05
aa(lp3101
S'schwarzenegg'
p3102
aF9.080177971488241e-05
aa(lp3103
S'clock'
p3104
aF3.0267259904960804e-05
aa(lp3105
S'3-year-old'
p3106
aF3.0267259904960804e-05
aa(lp3107
S'romantic-comedi'
p3108
aF3.0267259904960804e-05
aa(lp3109
S'occasion'
p3110
aF0.00033293985895456885
aa(lp3111
S'promis'
p3112
aF0.00042374163866945125
aa(lp3113
S'balto'
p3114
aF3.0267259904960804e-05
aa(lp3115
S'lump'
p3116
aF9.080177971488241e-05
aa(lp3117
S'rise'
p3118
aF0.00027240533914464724
aa(lp3119
S'sitcom-worthi'
p3120
aF3.0267259904960804e-05
aa(lp3121
S'fix'
p3122
aF3.0267259904960804e-05
aa(lp3123
S'wish'
p3124
aF0.00021187081933472562
aa(lp3125
S'stolid'
p3126
aF6.053451980992161e-05
aa(lp3127
S'sitcom'
p3128
aF0.00012106903961984322
aa(lp3129
S'tarzan'
p3130
aF3.0267259904960804e-05
aa(lp3131
S'over-indulg'
p3132
aF3.0267259904960804e-05
aa(lp3133
S'neg'
p3134
aF3.0267259904960804e-05
aa(lp3135
S'neutral'
p3136
aF3.0267259904960804e-05
aa(lp3137
S'half-step'
p3138
aF3.0267259904960804e-05
aa(lp3139
S'gear'
p3140
aF9.080177971488241e-05
aa(lp3141
S'textbook'
p3142
aF9.080177971488241e-05
aa(lp3143
S'indistinct'
p3144
aF3.0267259904960804e-05
aa(lp3145
S'fruit'
p3146
aF3.0267259904960804e-05
aa(lp3147
S'ship'
p3148
aF6.053451980992161e-05
aa(lp3149
S'rictur'
p3150
aF3.0267259904960804e-05
aa(lp3151
S'hole'
p3152
aF0.00021187081933472562
aa(lp3153
S'focus'
p3154
aF9.080177971488241e-05
aa(lp3155
S'reassur'
p3156
aF3.0267259904960804e-05
aa(lp3157
S'unshap'
p3158
aF3.0267259904960804e-05
aa(lp3159
S'vainli'
p3160
aF3.0267259904960804e-05
aa(lp3161
S'drudgeri'
p3162
aF3.0267259904960804e-05
aa(lp3163
S'kapur'
p3164
aF9.080177971488241e-05
aa(lp3165
S'suit'
p3166
aF0.00021187081933472562
aa(lp3167
S'ghost'
p3168
aF0.000151336299524804
aa(lp3169
S'puppi'
p3170
aF3.0267259904960804e-05
aa(lp3171
S'defend'
p3172
aF3.0267259904960804e-05
aa(lp3173
S'cop'
p3174
aF9.080177971488241e-05
aa(lp3175
S'action'
p3176
aF0.0012712249160083539
aa(lp3177
S'gener'
p3178
aF0.0006961469778140985
aa(lp3179
S'self-examin'
p3180
aF3.0267259904960804e-05
aa(lp3181
S'woodard'
p3182
aF3.0267259904960804e-05
aa(lp3183
S'lobotomi'
p3184
aF3.0267259904960804e-05
aa(lp3185
S'ce'
p3186
aF3.0267259904960804e-05
aa(lp3187
S'4ever'
p3188
aF6.053451980992161e-05
aa(lp3189
S'blank'
p3190
aF9.080177971488241e-05
aa(lp3191
S'critiqu'
p3192
aF9.080177971488241e-05
aa(lp3193
S'bland'
p3194
aF0.0005448106782892945
aa(lp3195
S'remot'
p3196
aF0.00012106903961984322
aa(lp3197
S'reassur'
p3198
aF3.0267259904960804e-05
aa(lp3199
S'auto'
p3200
aF9.080177971488241e-05
aa(lp3201
S'retali'
p3202
aF3.0267259904960804e-05
aa(lp3203
S'contrast'
p3204
aF6.053451980992161e-05
aa(lp3205
S'solut'
p3206
aF6.053451980992161e-05
aa(lp3207
S'miss'
p3208
aF0.0005448106782892945
aa(lp3209
S'miss'
p3210
aF0.0005448106782892945
aa(lp3211
S'signpost'
p3212
aF6.053451980992161e-05
aa(lp3213
S'miss'
p3214
aF0.0005448106782892945
aa(lp3215
S'swing'
p3216
aF9.080177971488241e-05
aa(lp3217
S'oblivi'
p3218
aF3.0267259904960804e-05
aa(lp3219
S'stench'
p3220
aF3.0267259904960804e-05
aa(lp3221
S'endur'
p3222
aF0.00012106903961984322
aa(lp3223
S'freighter'
p3224
aF3.0267259904960804e-05
aa(lp3225
S'impati'
p3226
aF3.0267259904960804e-05
aa(lp3227
S'afterschool'
p3228
aF3.0267259904960804e-05
aa(lp3229
S'castrat'
p3230
aF3.0267259904960804e-05
aa(lp3231
S'piti'
p3232
aF0.00021187081933472562
aa(lp3233
S'morph'
p3234
aF3.0267259904960804e-05
aa(lp3235
S'misguid'
p3236
aF3.0267259904960804e-05
aa(lp3237
S'numb'
p3238
aF6.053451980992161e-05
aa(lp3239
S'squander'
p3240
aF0.00018160355942976482
aa(lp3241
S'wearisom'
p3242
aF3.0267259904960804e-05
aa(lp3243
S'veil'
p3244
aF3.0267259904960804e-05
aa(lp3245
S'hotel'
p3246
aF6.053451980992161e-05
aa(lp3247
S'prefer'
p3248
aF6.053451980992161e-05
aa(lp3249
S'sentiment'
p3250
aF0.0004540088985744121
aa(lp3251
S'american'
p3252
aF0.000605345198099216
aa(lp3253
S'favor'
p3254
aF0.00021187081933472562
aa(lp3255
S'content'
p3256
aF0.00018160355942976482
aa(lp3257
S'sentiment'
p3258
aF0.0004540088985744121
aa(lp3259
S'dog'
p3260
aF0.000302672599049608
aa(lp3261
S'brit-com'
p3262
aF3.0267259904960804e-05
aa(lp3263
S'tub-thumpingli'
p3264
aF3.0267259904960804e-05
aa(lp3265
S'sitcomishli'
p3266
aF3.0267259904960804e-05
aa(lp3267
S'fustili'
p3268
aF3.0267259904960804e-05
aa(lp3269
S'disintegr'
p3270
aF6.053451980992161e-05
aa(lp3271
S'dri'
p3272
aF0.00021187081933472562
aa(lp3273
S'avon'
p3274
aF3.0267259904960804e-05
aa(lp3275
S'rescu'
p3276
aF6.053451980992161e-05
aa(lp3277
S'privat'
p3278
aF9.080177971488241e-05
aa(lp3279
S'strive'
p3280
aF6.053451980992161e-05
aa(lp3281
S'dip'
p3282
aF6.053451980992161e-05
aa(lp3283
S'dig'
p3284
aF6.053451980992161e-05
aa(lp3285
S'naqoyqatsi'
p3286
aF3.0267259904960804e-05
aa(lp3287
S'bewitch'
p3288
aF3.0267259904960804e-05
aa(lp3289
S'context'
p3290
aF9.080177971488241e-05
aa(lp3291
S'dig'
p3292
aF6.053451980992161e-05
aa(lp3293
S'caretak'
p3294
aF3.0267259904960804e-05
aa(lp3295
S'piti'
p3296
aF0.00021187081933472562
aa(lp3297
S'beachcomb'
p3298
aF3.0267259904960804e-05
aa(lp3299
S'situat'
p3300
aF0.00033293985895456885
aa(lp3301
S'trap'
p3302
aF0.00024213807923968643
aa(lp3303
S'descript'
p3304
aF6.053451980992161e-05
aa(lp3305
S'rap'
p3306
aF6.053451980992161e-05
aa(lp3307
S'busi'
p3308
aF0.00018160355942976482
aa(lp3309
S'hollow'
p3310
aF0.000151336299524804
aa(lp3311
S'flabbi'
p3312
aF6.053451980992161e-05
aa(lp3313
S'hem'
p3314
aF6.053451980992161e-05
aa(lp3315
S'categori'
p3316
aF9.080177971488241e-05
aa(lp3317
S'jock'
p3318
aF3.0267259904960804e-05
aa(lp3319
S'burlap'
p3320
aF3.0267259904960804e-05
aa(lp3321
S'televis'
p3322
aF0.000151336299524804
aa(lp3323
S'dip'
p3324
aF6.053451980992161e-05
aa(lp3325
S'held'
p3326
aF6.053451980992161e-05
aa(lp3327
S'helm'
p3328
aF6.053451980992161e-05
aa(lp3329
S'big-wav'
p3330
aF3.0267259904960804e-05
aa(lp3331
S'dive'
p3332
aF3.0267259904960804e-05
aa(lp3333
S'cheer'
p3334
aF9.080177971488241e-05
aa(lp3335
S'pie'
p3336
aF9.080177971488241e-05
aa(lp3337
S'structur'
p3338
aF0.00021187081933472562
aa(lp3339
S'run'
p3340
aF0.0008172160174339417
aa(lp3341
S'mingl'
p3342
aF3.0267259904960804e-05
aa(lp3343
S'provinc'
p3344
aF3.0267259904960804e-05
aa(lp3345
S'eclair'
p3346
aF3.0267259904960804e-05
aa(lp3347
S'forget'
p3348
aF0.00018160355942976482
aa(lp3349
S'sag'
p3350
aF3.0267259904960804e-05
aa(lp3351
S'not-at-all-good'
p3352
aF3.0267259904960804e-05
aa(lp3353
S'pink'
p3354
aF6.053451980992161e-05
aa(lp3355
S'sap'
p3356
aF9.080177971488241e-05
aa(lp3357
S'pill'
p3358
aF3.0267259904960804e-05
aa(lp3359
S'proce'
p3360
aF3.0267259904960804e-05
aa(lp3361
S'frolic'
p3362
aF3.0267259904960804e-05
aa(lp3363
S'watered-down'
p3364
aF3.0267259904960804e-05
aa(lp3365
S'voic'
p3366
aF0.00012106903961984322
aa(lp3367
S'half-an-hour'
p3368
aF3.0267259904960804e-05
aa(lp3369
S'becalm'
p3370
aF3.0267259904960804e-05
aa(lp3371
S'puriti'
p3372
aF3.0267259904960804e-05
aa(lp3373
S'expediti'
p3374
aF3.0267259904960804e-05
aa(lp3375
S'defianc'
p3376
aF3.0267259904960804e-05
aa(lp3377
S'monster'
p3378
aF0.00027240533914464724
aa(lp3379
S'sit'
p3380
aF0.00048427615847937286
aa(lp3381
S'stop-and-start'
p3382
aF3.0267259904960804e-05
aa(lp3383
S'buffoon'
p3384
aF3.0267259904960804e-05
aa(lp3385
S'shrill'
p3386
aF6.053451980992161e-05
aa(lp3387
S'writer-producer-director'
p3388
aF3.0267259904960804e-05
aa(lp3389
S'auditorium'
p3390
aF3.0267259904960804e-05
aa(lp3391
S'wind'
p3392
aF0.000151336299524804
aa(lp3393
S'ayurveda'
p3394
aF3.0267259904960804e-05
aa(lp3395
S'premis'
p3396
aF0.0005448106782892945
aa(lp3397
S'blusteri'
p3398
aF3.0267259904960804e-05
aa(lp3399
S'shriek'
p3400
aF3.0267259904960804e-05
aa(lp3401
S'wrong'
p3402
aF0.00039347437876449047
aa(lp3403
S'wrote'
p3404
aF6.053451980992161e-05
aa(lp3405
S'reduc'
p3406
aF9.080177971488241e-05
aa(lp3407
S'monster'
p3408
aF0.00027240533914464724
aa(lp3409
S'reduc'
p3410
aF9.080177971488241e-05
aa(lp3411
S'run'
p3412
aF0.0008172160174339417
aa(lp3413
S'fundament'
p3414
aF9.080177971488241e-05
aa(lp3415
S'glamor'
p3416
aF3.0267259904960804e-05
aa(lp3417
S'thornier'
p3418
aF3.0267259904960804e-05
aa(lp3419
S'recycl'
p3420
aF9.080177971488241e-05
aa(lp3421
S'promis'
p3422
aF0.00042374163866945125
aa(lp3423
S'wind'
p3424
aF0.000151336299524804
aa(lp3425
S'blind'
p3426
aF9.080177971488241e-05
aa(lp3427
S'wind'
p3428
aF0.000151336299524804
aa(lp3429
S'tax'
p3430
aF3.0267259904960804e-05
aa(lp3431
S'overwritten'
p3432
aF6.053451980992161e-05
aa(lp3433
S'wish'
p3434
aF0.00021187081933472562
aa(lp3435
S'anyway'
p3436
aF9.080177971488241e-05
aa(lp3437
S'compromis'
p3438
aF6.053451980992161e-05
aa(lp3439
S'self-glorifi'
p3440
aF3.0267259904960804e-05
aa(lp3441
S'raison'
p3442
aF3.0267259904960804e-05
aa(lp3443
S'storytel'
p3444
aF0.00033293985895456885
aa(lp3445
S'sanguin'
p3446
aF3.0267259904960804e-05
aa(lp3447
S'diari'
p3448
aF6.053451980992161e-05
aa(lp3449
S'deal'
p3450
aF0.00024213807923968643
aa(lp3451
S'american-styl'
p3452
aF3.0267259904960804e-05
aa(lp3453
S'shorter'
p3454
aF6.053451980992161e-05
aa(lp3455
S'battl'
p3456
aF0.00018160355942976482
aa(lp3457
S'kidnap'
p3458
aF3.0267259904960804e-05
aa(lp3459
S'kirkegaard'
p3460
aF3.0267259904960804e-05
aa(lp3461
S'manner'
p3462
aF0.00021187081933472562
aa(lp3463
S'prep-school'
p3464
aF6.053451980992161e-05
aa(lp3465
S'snipe'
p3466
aF9.080177971488241e-05
aa(lp3467
S'pat'
p3468
aF9.080177971488241e-05
aa(lp3469
S'funnier'
p3470
aF0.00012106903961984322
aa(lp3471
S'altogeth'
p3472
aF9.080177971488241e-05
aa(lp3473
S'pad'
p3474
aF0.00012106903961984322
aa(lp3475
S'molehil'
p3476
aF3.0267259904960804e-05
aa(lp3477
S'neither'
p3478
aF0.00036320711885952963
aa(lp3479
S'euphoria'
p3480
aF3.0267259904960804e-05
aa(lp3481
S'egomaniac'
p3482
aF3.0267259904960804e-05
aa(lp3483
S'dark-as-pitch'
p3484
aF3.0267259904960804e-05
aa(lp3485
S'self-indulg'
p3486
aF9.080177971488241e-05
aa(lp3487
S'strongman'
p3488
aF3.0267259904960804e-05
aa(lp3489
S'involv'
p3490
aF0.00033293985895456885
aa(lp3491
S'triangl'
p3492
aF9.080177971488241e-05
aa(lp3493
S'homosexu'
p3494
aF6.053451980992161e-05
aa(lp3495
S'byatt'
p3496
aF3.0267259904960804e-05
aa(lp3497
S'entrap'
p3498
aF3.0267259904960804e-05
aa(lp3499
S'bestial'
p3500
aF3.0267259904960804e-05
aa(lp3501
S'pee'
p3502
aF3.0267259904960804e-05
aa(lp3503
S'translat'
p3504
aF9.080177971488241e-05
aa(lp3505
S'seventy-minut'
p3506
aF3.0267259904960804e-05
aa(lp3507
S'iter'
p3508
aF3.0267259904960804e-05
aa(lp3509
S'non-britney'
p3510
aF3.0267259904960804e-05
aa(lp3511
S'oleand'
p3512
aF6.053451980992161e-05
aa(lp3513
S'escap'
p3514
aF0.00024213807923968643
aa(lp3515
S'play'
p3516
aF0.0009988195768637065
aa(lp3517
S'pie'
p3518
aF9.080177971488241e-05
aa(lp3519
S'ongo'
p3520
aF3.0267259904960804e-05
aa(lp3521
S'pin'
p3522
aF3.0267259904960804e-05
aa(lp3523
S'kick'
p3524
aF0.00021187081933472562
aa(lp3525
S'pot'
p3526
aF3.0267259904960804e-05
aa(lp3527
S'self-empow'
p3528
aF3.0267259904960804e-05
aa(lp3529
S'maddeningli'
p3530
aF3.0267259904960804e-05
aa(lp3531
S'gone'
p3532
aF0.00024213807923968643
aa(lp3533
S'cor-blimey-luv-a-duck'
p3534
aF3.0267259904960804e-05
aa(lp3535
S'absent'
p3536
aF3.0267259904960804e-05
aa(lp3537
S'imogen'
p3538
aF3.0267259904960804e-05
aa(lp3539
S'load'
p3540
aF0.00012106903961984322
aa(lp3541
S'mainstream'
p3542
aF9.080177971488241e-05
aa(lp3543
S'belt'
p3544
aF0.00012106903961984322
aa(lp3545
S'corps'
p3546
aF6.053451980992161e-05
aa(lp3547
S'chatti'
p3548
aF3.0267259904960804e-05
aa(lp3549
S'convent'
p3550
aF0.00027240533914464724
aa(lp3551
S'formula'
p3552
aF0.0005448106782892945
aa(lp3553
S'beer'
p3554
aF6.053451980992161e-05
aa(lp3555
S'major'
p3556
aF0.00021187081933472562
aa(lp3557
S'side-by-sid'
p3558
aF3.0267259904960804e-05
aa(lp3559
S'self-satisfact'
p3560
aF3.0267259904960804e-05
aa(lp3561
S'overstyl'
p3562
aF3.0267259904960804e-05
aa(lp3563
S'upheav'
p3564
aF3.0267259904960804e-05
aa(lp3565
S'florid'
p3566
aF6.053451980992161e-05
aa(lp3567
S'monologu'
p3568
aF3.0267259904960804e-05
aa(lp3569
S'teenag'
p3570
aF0.000151336299524804
aa(lp3571
S'insensit'
p3572
aF3.0267259904960804e-05
aa(lp3573
S'weaponri'
p3574
aF3.0267259904960804e-05
aa(lp3575
S'bluster'
p3576
aF3.0267259904960804e-05
aa(lp3577
S'hand'
p3578
aF0.000302672599049608
aa(lp3579
S'buri'
p3580
aF6.053451980992161e-05
aa(lp3581
S'blowout'
p3582
aF3.0267259904960804e-05
aa(lp3583
S'stagey'
p3584
aF6.053451980992161e-05
aa(lp3585
S'oeuvr'
p3586
aF3.0267259904960804e-05
aa(lp3587
S'expert'
p3588
aF6.053451980992161e-05
aa(lp3589
S'fundament'
p3590
aF9.080177971488241e-05
aa(lp3591
S'acr'
p3592
aF3.0267259904960804e-05
aa(lp3593
S'adopt'
p3594
aF6.053451980992161e-05
aa(lp3595
S'ineptli'
p3596
aF6.053451980992161e-05
aa(lp3597
S'lector'
p3598
aF3.0267259904960804e-05
aa(lp3599
S'talker'
p3600
aF3.0267259904960804e-05
aa(lp3601
S'trier'
p3602
aF3.0267259904960804e-05
aa(lp3603
S'fang-bar'
p3604
aF3.0267259904960804e-05
aa(lp3605
S'grave'
p3606
aF9.080177971488241e-05
aa(lp3607
S'accent'
p3608
aF0.00018160355942976482
aa(lp3609
S'run'
p3610
aF0.0008172160174339417
aa(lp3611
S'hugger'
p3612
aF3.0267259904960804e-05
aa(lp3613
S'hard'
p3614
aF0.0007264142377190593
aa(lp3615
S'shallow'
p3616
aF0.00021187081933472562
aa(lp3617
S'hand'
p3618
aF0.000302672599049608
aa(lp3619
S'excus'
p3620
aF0.00018160355942976482
aa(lp3621
S'harder'
p3622
aF9.080177971488241e-05
aa(lp3623
S'rhino'
p3624
aF3.0267259904960804e-05
aa(lp3625
S'conclus'
p3626
aF0.00018160355942976482
aa(lp3627
S'supernatur'
p3628
aF9.080177971488241e-05
aa(lp3629
S'knock'
p3630
aF9.080177971488241e-05
aa(lp3631
S'undon'
p3632
aF0.00012106903961984322
aa(lp3633
S'net'
p3634
aF3.0267259904960804e-05
aa(lp3635
S'hiss'
p3636
aF3.0267259904960804e-05
aa(lp3637
S'babi'
p3638
aF6.053451980992161e-05
aa(lp3639
S'broke'
p3640
aF6.053451980992161e-05
aa(lp3641
S'incognito'
p3642
aF3.0267259904960804e-05
aa(lp3643
S'notic'
p3644
aF0.000151336299524804
aa(lp3645
S'medic'
p3646
aF6.053451980992161e-05
aa(lp3647
S'barlow'
p3648
aF3.0267259904960804e-05
aa(lp3649
S'notic'
p3650
aF0.000151336299524804
aa(lp3651
S'rote'
p3652
aF6.053451980992161e-05
aa(lp3653
S'outdat'
p3654
aF3.0267259904960804e-05
aa(lp3655
S'froth'
p3656
aF3.0267259904960804e-05
aa(lp3657
S'hill'
p3658
aF9.080177971488241e-05
aa(lp3659
S'broad'
p3660
aF9.080177971488241e-05
aa(lp3661
S'restless'
p3662
aF3.0267259904960804e-05
aa(lp3663
S'smoochi'
p3664
aF6.053451980992161e-05
aa(lp3665
S'treatment'
p3666
aF0.000151336299524804
aa(lp3667
S'hide'
p3668
aF0.00012106903961984322
aa(lp3669
S'rel'
p3670
aF0.00012106903961984322
aa(lp3671
S'bard'
p3672
aF9.080177971488241e-05
aa(lp3673
S'aftertast'
p3674
aF3.0267259904960804e-05
aa(lp3675
S'conveyor'
p3676
aF3.0267259904960804e-05
aa(lp3677
S'bale'
p3678
aF3.0267259904960804e-05
aa(lp3679
S'jeunet'
p3680
aF3.0267259904960804e-05
aa(lp3681
S'spark'
p3682
aF0.00018160355942976482
aa(lp3683
S'horizon'
p3684
aF3.0267259904960804e-05
aa(lp3685
S'cumbersom'
p3686
aF3.0267259904960804e-05
aa(lp3687
S'sleight-of-hand'
p3688
aF3.0267259904960804e-05
aa(lp3689
S'swimfan'
p3690
aF6.053451980992161e-05
aa(lp3691
S'parti'
p3692
aF0.00018160355942976482
aa(lp3693
S'inter-speci'
p3694
aF3.0267259904960804e-05
aa(lp3695
S'counterpart'
p3696
aF6.053451980992161e-05
aa(lp3697
S'gener'
p3698
aF0.0006961469778140985
aa(lp3699
S'ballerina'
p3700
aF3.0267259904960804e-05
aa(lp3701
S'mountain'
p3702
aF3.0267259904960804e-05
aa(lp3703
S'point-of-view'
p3704
aF3.0267259904960804e-05
aa(lp3705
S'trifl'
p3706
aF0.000151336299524804
aa(lp3707
S'batman'
p3708
aF3.0267259904960804e-05
aa(lp3709
S'exxon'
p3710
aF3.0267259904960804e-05
aa(lp3711
S'110'
p3712
aF6.053451980992161e-05
aa(lp3713
S'disservic'
p3714
aF3.0267259904960804e-05
aa(lp3715
S'feature-length'
p3716
aF9.080177971488241e-05
aa(lp3717
S'strain'
p3718
aF0.00018160355942976482
aa(lp3719
S'contempl'
p3720
aF6.053451980992161e-05
aa(lp3721
S'120'
p3722
aF3.0267259904960804e-05
aa(lp3723
S'assumpt'
p3724
aF3.0267259904960804e-05
aa(lp3725
S'140'
p3726
aF3.0267259904960804e-05
aa(lp3727
S't-shirt'
p3728
aF3.0267259904960804e-05
aa(lp3729
S'cheaper'
p3730
aF3.0267259904960804e-05
aa(lp3731
S'cheapen'
p3732
aF6.053451980992161e-05
aa(lp3733
S'long-wind'
p3734
aF3.0267259904960804e-05
aa(lp3735
S'stab'
p3736
aF3.0267259904960804e-05
aa(lp3737
S'well-conceiv'
p3738
aF3.0267259904960804e-05
aa(lp3739
S'admit'
p3740
aF0.00012106903961984322
aa(lp3741
S'tummi'
p3742
aF3.0267259904960804e-05
aa(lp3743
S'progress'
p3744
aF6.053451980992161e-05
aa(lp3745
S'telescop'
p3746
aF3.0267259904960804e-05
aa(lp3747
S'crude'
p3748
aF9.080177971488241e-05
aa(lp3749
S'excurs'
p3750
aF3.0267259904960804e-05
aa(lp3751
S'schumach'
p3752
aF6.053451980992161e-05
aa(lp3753
S'fondli'
p3754
aF3.0267259904960804e-05
aa(lp3755
S'wheedl'
p3756
aF3.0267259904960804e-05
aa(lp3757
S'hundr'
p3758
aF6.053451980992161e-05
aa(lp3759
S'fall'
p3760
aF0.0004540088985744121
aa(lp3761
S'compar'
p3762
aF0.00012106903961984322
aa(lp3763
S'notic'
p3764
aF0.000151336299524804
aa(lp3765
S'profan'
p3766
aF9.080177971488241e-05
aa(lp3767
S'advertis'
p3768
aF6.053451980992161e-05
aa(lp3769
S'minni'
p3770
aF3.0267259904960804e-05
aa(lp3771
S'101'
p3772
aF6.053451980992161e-05
aa(lp3773
S'100'
p3774
aF6.053451980992161e-05
aa(lp3775
S'cherri'
p3776
aF6.053451980992161e-05
aa(lp3777
S'teenag'
p3778
aF0.000151336299524804
aa(lp3779
S'allegedli'
p3780
aF6.053451980992161e-05
aa(lp3781
S'curios'
p3782
aF9.080177971488241e-05
aa(lp3783
S'contempl'
p3784
aF6.053451980992161e-05
aa(lp3785
S'ransack'
p3786
aF6.053451980992161e-05
aa(lp3787
S'marri'
p3788
aF3.0267259904960804e-05
aa(lp3789
S'bard'
p3790
aF9.080177971488241e-05
aa(lp3791
S'shown'
p3792
aF3.0267259904960804e-05
aa(lp3793
S'discard'
p3794
aF3.0267259904960804e-05
aa(lp3795
S'bewar'
p3796
aF6.053451980992161e-05
aa(lp3797
S'emphasi'
p3798
aF9.080177971488241e-05
aa(lp3799
S'morsel'
p3800
aF3.0267259904960804e-05
aa(lp3801
S'cheer'
p3802
aF9.080177971488241e-05
aa(lp3803
S'balm'
p3804
aF3.0267259904960804e-05
aa(lp3805
S'lab'
p3806
aF3.0267259904960804e-05
aa(lp3807
S'lax'
p3808
aF3.0267259904960804e-05
aa(lp3809
S'appropri'
p3810
aF9.080177971488241e-05
aa(lp3811
S'maudlin'
p3812
aF0.000151336299524804
aa(lp3813
S'short'
p3814
aF0.00048427615847937286
aa(lp3815
S'barrag'
p3816
aF3.0267259904960804e-05
aa(lp3817
S'follow'
p3818
aF0.00027240533914464724
aa(lp3819
S'segment'
p3820
aF6.053451980992161e-05
aa(lp3821
S'smear'
p3822
aF6.053451980992161e-05
aa(lp3823
S'aspir'
p3824
aF9.080177971488241e-05
aa(lp3825
S'synergist'
p3826
aF3.0267259904960804e-05
aa(lp3827
S'103-minut'
p3828
aF3.0267259904960804e-05
aa(lp3829
S'babi'
p3830
aF6.053451980992161e-05
aa(lp3831
S'dead-ey'
p3832
aF3.0267259904960804e-05
aa(lp3833
S'condit'
p3834
aF0.00012106903961984322
aa(lp3835
S'hanussen'
p3836
aF3.0267259904960804e-05
aa(lp3837
S'concentr'
p3838
aF6.053451980992161e-05
aa(lp3839
S'downright'
p3840
aF0.00018160355942976482
aa(lp3841
S'ball'
p3842
aF9.080177971488241e-05
aa(lp3843
S"n't"
p3844
aF0.006083719240897121
aa(lp3845
S'regard'
p3846
aF9.080177971488241e-05
aa(lp3847
S'near-fat'
p3848
aF3.0267259904960804e-05
aa(lp3849
S'pool'
p3850
aF6.053451980992161e-05
aa(lp3851
S'particip'
p3852
aF9.080177971488241e-05
aa(lp3853
S'poof'
p3854
aF3.0267259904960804e-05
aa(lp3855
S'restag'
p3856
aF3.0267259904960804e-05
aa(lp3857
S'bag'
p3858
aF0.00012106903961984322
aa(lp3859
S'tremor'
p3860
aF3.0267259904960804e-05
aa(lp3861
S'backwat'
p3862
aF3.0267259904960804e-05
aa(lp3863
S'pastich'
p3864
aF9.080177971488241e-05
aa(lp3865
S'60-second'
p3866
aF3.0267259904960804e-05
aa(lp3867
S'emaci'
p3868
aF3.0267259904960804e-05
aa(lp3869
S'map'
p3870
aF3.0267259904960804e-05
aa(lp3871
S'poke'
p3872
aF9.080177971488241e-05
aa(lp3873
S'ardent'
p3874
aF9.080177971488241e-05
aa(lp3875
S'decor'
p3876
aF3.0267259904960804e-05
aa(lp3877
S'lectur'
p3878
aF6.053451980992161e-05
aa(lp3879
S'whir'
p3880
aF3.0267259904960804e-05
aa(lp3881
S'weird'
p3882
aF0.000302672599049608
aa(lp3883
S'substitut'
p3884
aF9.080177971488241e-05
aa(lp3885
S'jammi'
p3886
aF3.0267259904960804e-05
aa(lp3887
S'whet'
p3888
aF3.0267259904960804e-05
aa(lp3889
S'april'
p3890
aF3.0267259904960804e-05
aa(lp3891
S'suit'
p3892
aF0.00021187081933472562
aa(lp3893
S'ridicul'
p3894
aF0.00021187081933472562
aa(lp3895
S'mob'
p3896
aF3.0267259904960804e-05
aa(lp3897
S'mom'
p3898
aF3.0267259904960804e-05
aa(lp3899
S'run-of-the-mil'
p3900
aF9.080177971488241e-05
aa(lp3901
S'slow-mot'
p3902
aF3.0267259904960804e-05
aa(lp3903
S'inexperienc'
p3904
aF3.0267259904960804e-05
aa(lp3905
S'essenc'
p3906
aF3.0267259904960804e-05
aa(lp3907
S'substitut'
p3908
aF9.080177971488241e-05
aa(lp3909
S'sappi'
p3910
aF0.00012106903961984322
aa(lp3911
S'follow'
p3912
aF0.00027240533914464724
aa(lp3913
S'founder'
p3914
aF6.053451980992161e-05
aa(lp3915
S'leaner'
p3916
aF3.0267259904960804e-05
aa(lp3917
S'muy'
p3918
aF3.0267259904960804e-05
aa(lp3919
S'inauspici'
p3920
aF3.0267259904960804e-05
aa(lp3921
S'mid'
p3922
aF3.0267259904960804e-05
aa(lp3923
S'ringu'
p3924
aF6.053451980992161e-05
aa(lp3925
S'bradi'
p3926
aF3.0267259904960804e-05
aa(lp3927
S'whimper'
p3928
aF3.0267259904960804e-05
aa(lp3929
S'daughter'
p3930
aF9.080177971488241e-05
aa(lp3931
S'bolado'
p3932
aF3.0267259904960804e-05
aa(lp3933
S'animated-movi'
p3934
aF3.0267259904960804e-05
aa(lp3935
S'mend'
p3936
aF6.053451980992161e-05
aa(lp3937
S'tv-movi'
p3938
aF3.0267259904960804e-05
aa(lp3939
S'biggest'
p3940
aF0.000151336299524804
aa(lp3941
S'tv-insid'
p3942
aF3.0267259904960804e-05
aa(lp3943
S'suspend'
p3944
aF6.053451980992161e-05
aa(lp3945
S'constrict'
p3946
aF3.0267259904960804e-05
aa(lp3947
S'compromis'
p3948
aF6.053451980992161e-05
aa(lp3949
S'gener'
p3950
aF0.0006961469778140985
aa(lp3951
S'assign'
p3952
aF6.053451980992161e-05
aa(lp3953
S'wooden'
p3954
aF6.053451980992161e-05
aa(lp3955
S'tiresom'
p3956
aF0.00018160355942976482
aa(lp3957
S'consequ'
p3958
aF9.080177971488241e-05
aa(lp3959
S'now-clich'
p3960
aF3.0267259904960804e-05
aa(lp3961
S'chewi'
p3962
aF3.0267259904960804e-05
aa(lp3963
S'matur'
p3964
aF9.080177971488241e-05
aa(lp3965
S'simpler'
p3966
aF3.0267259904960804e-05
aa(lp3967
S'authent'
p3968
aF0.00012106903961984322
aa(lp3969
S'smugli'
p3970
aF3.0267259904960804e-05
aa(lp3971
S'sanctimoni'
p3972
aF6.053451980992161e-05
aa(lp3973
S'power-lunch'
p3974
aF3.0267259904960804e-05
aa(lp3975
S'feed'
p3976
aF3.0267259904960804e-05
aa(lp3977
S'ichi'
p3978
aF3.0267259904960804e-05
aa(lp3979
S'cheat'
p3980
aF6.053451980992161e-05
aa(lp3981
S'call'
p3982
aF0.0004540088985744121
aa(lp3983
S'columbu'
p3984
aF3.0267259904960804e-05
aa(lp3985
S'neglig'
p3986
aF9.080177971488241e-05
aa(lp3987
S'recycl'
p3988
aF9.080177971488241e-05
aa(lp3989
S'bowel'
p3990
aF3.0267259904960804e-05
aa(lp3991
S'card'
p3992
aF9.080177971488241e-05
aa(lp3993
S'moral'
p3994
aF0.000302672599049608
aa(lp3995
S'quirk'
p3996
aF9.080177971488241e-05
aa(lp3997
S'recycl'
p3998
aF9.080177971488241e-05
aa(lp3999
S'soon'
p4000
aF0.00012106903961984322
aa(lp4001
S'camp'
p4002
aF9.080177971488241e-05
aa(lp4003
S'confus'
p4004
aF0.00021187081933472562
aa(lp4005
S'fog'
p4006
aF3.0267259904960804e-05
aa(lp4007
S'water'
p4008
aF0.00021187081933472562
aa(lp4009
S'sledgehamm'
p4010
aF3.0267259904960804e-05
aa(lp4011
S'pink'
p4012
aF6.053451980992161e-05
aa(lp4013
S'chef'
p4014
aF3.0267259904960804e-05
aa(lp4015
S'pompos'
p4016
aF3.0267259904960804e-05
aa(lp4017
S'cheer'
p4018
aF9.080177971488241e-05
aa(lp4019
S'co-star'
p4020
aF3.0267259904960804e-05
aa(lp4021
S'call'
p4022
aF0.0004540088985744121
aa(lp4023
S'columbia'
p4024
aF3.0267259904960804e-05
aa(lp4025
S'stifl'
p4026
aF9.080177971488241e-05
aa(lp4027
S'comedian'
p4028
aF6.053451980992161e-05
aa(lp4029
S'falter'
p4030
aF6.053451980992161e-05
aa(lp4031
S'salari'
p4032
aF3.0267259904960804e-05
aa(lp4033
S'soap'
p4034
aF0.00033293985895456885
aa(lp4035
S'exagger'
p4036
aF6.053451980992161e-05
aa(lp4037
S'confus'
p4038
aF0.00021187081933472562
aa(lp4039
S'better'
p4040
aF0.001240957656103393
aa(lp4041
S'coher'
p4042
aF0.00012106903961984322
aa(lp4043
S'milk'
p4044
aF9.080177971488241e-05
aa(lp4045
S'saccharin'
p4046
aF6.053451980992161e-05
aa(lp4047
S'affleck'
p4048
aF6.053451980992161e-05
aa(lp4049
S'notic'
p4050
aF0.000151336299524804
aa(lp4051
S'accuraci'
p4052
aF3.0267259904960804e-05
aa(lp4053
S'nauseat'
p4054
aF3.0267259904960804e-05
aa(lp4055
S'orchard'
p4056
aF6.053451980992161e-05
aa(lp4057
S'piti'
p4058
aF0.00021187081933472562
aa(lp4059
S'campi'
p4060
aF6.053451980992161e-05
aa(lp4061
S'camp'
p4062
aF9.080177971488241e-05
aa(lp4063
S'drain'
p4064
aF6.053451980992161e-05
aa(lp4065
S'gunfest'
p4066
aF3.0267259904960804e-05
aa(lp4067
S'creepy-crawli'
p4068
aF3.0267259904960804e-05
aa(lp4069
S'everlast'
p4070
aF6.053451980992161e-05
aa(lp4071
S'condit'
p4072
aF0.00012106903961984322
aa(lp4073
S'pouty-lip'
p4074
aF3.0267259904960804e-05
aa(lp4075
S'wash'
p4076
aF6.053451980992161e-05
aa(lp4077
S'ex-girlfriend'
p4078
aF3.0267259904960804e-05
aa(lp4079
S'action'
p4080
aF0.0012712249160083539
aa(lp4081
S'rigor'
p4082
aF3.0267259904960804e-05
aa(lp4083
S'race'
p4084
aF0.000151336299524804
aa(lp4085
S'hokey'
p4086
aF9.080177971488241e-05
aa(lp4087
S'circuit'
p4088
aF6.053451980992161e-05
aa(lp4089
S'episod'
p4090
aF0.00033293985895456885
aa(lp4091
S'bout'
p4092
aF3.0267259904960804e-05
aa(lp4093
S'manufactur'
p4094
aF0.00012106903961984322
aa(lp4095
S'down-and-dirti'
p4096
aF3.0267259904960804e-05
aa(lp4097
S'snatch'
p4098
aF3.0267259904960804e-05
aa(lp4099
S'self-parodi'
p4100
aF3.0267259904960804e-05
aa(lp4101
S'voic'
p4102
aF0.00012106903961984322
aa(lp4103
S'-rrb-'
p4104
aF0.002300311752777021
aa(lp4105
S'distress'
p4106
aF3.0267259904960804e-05
aa(lp4107
S'road-and-buddi'
p4108
aF3.0267259904960804e-05
aa(lp4109
S'hawk'
p4110
aF9.080177971488241e-05
aa(lp4111
S'deflat'
p4112
aF3.0267259904960804e-05
aa(lp4113
S'pencil'
p4114
aF3.0267259904960804e-05
aa(lp4115
S'dramat'
p4116
aF0.0005145434183843337
aa(lp4117
S'serious'
p4118
aF0.00024213807923968643
aa(lp4119
S'offend'
p4120
aF9.080177971488241e-05
aa(lp4121
S'self-amus'
p4122
aF3.0267259904960804e-05
aa(lp4123
S'disbelief'
p4124
aF6.053451980992161e-05
aa(lp4125
S'toback'
p4126
aF9.080177971488241e-05
aa(lp4127
S'zap'
p4128
aF3.0267259904960804e-05
aa(lp4129
S'littl'
p4130
aF0.001392293955628197
aa(lp4131
S'yvan'
p4132
aF3.0267259904960804e-05
aa(lp4133
S'anti-feminist'
p4134
aF3.0267259904960804e-05
aa(lp4135
S'editori'
p4136
aF3.0267259904960804e-05
aa(lp4137
S'motiv'
p4138
aF0.000151336299524804
aa(lp4139
S'crappi'
p4140
aF3.0267259904960804e-05
aa(lp4141
S'two-way'
p4142
aF3.0267259904960804e-05
aa(lp4143
S'crush'
p4144
aF0.00021187081933472562
aa(lp4145
S'cliffhang'
p4146
aF3.0267259904960804e-05
aa(lp4147
S'doctor'
p4148
aF3.0267259904960804e-05
aa(lp4149
S'american'
p4150
aF0.000605345198099216
aa(lp4151
S'gener'
p4152
aF0.0006961469778140985
aa(lp4153
S'arbitrari'
p4154
aF3.0267259904960804e-05
aa(lp4155
S'myopic'
p4156
aF3.0267259904960804e-05
aa(lp4157
S'herebi'
p4158
aF3.0267259904960804e-05
aa(lp4159
S'stabil'
p4160
aF3.0267259904960804e-05
aa(lp4161
S'clumsili'
p4162
aF9.080177971488241e-05
aa(lp4163
S'sense-of-humour'
p4164
aF3.0267259904960804e-05
aa(lp4165
S'comedian'
p4166
aF6.053451980992161e-05
aa(lp4167
S'godzilla'
p4168
aF3.0267259904960804e-05
aa(lp4169
S'dog-paddl'
p4170
aF3.0267259904960804e-05
aa(lp4171
S'unifi'
p4172
aF6.053451980992161e-05
aa(lp4173
S'brusqu'
p4174
aF3.0267259904960804e-05
aa(lp4175
S'titu'
p4176
aF3.0267259904960804e-05
aa(lp4177
S'argot'
p4178
aF3.0267259904960804e-05
aa(lp4179
S'freddi'
p4180
aF0.00012106903961984322
aa(lp4181
S'enterpris'
p4182
aF9.080177971488241e-05
aa(lp4183
S'hurt'
p4184
aF6.053451980992161e-05
aa(lp4185
S'dement'
p4186
aF6.053451980992161e-05
aa(lp4187
S'wake'
p4188
aF9.080177971488241e-05
aa(lp4189
S'park'
p4190
aF0.00012106903961984322
aa(lp4191
S'barrow'
p4192
aF3.0267259904960804e-05
aa(lp4193
S'past'
p4194
aF0.00033293985895456885
aa(lp4195
S'play'
p4196
aF0.0009988195768637065
aa(lp4197
S'brothers-styl'
p4198
aF3.0267259904960804e-05
aa(lp4199
S'jell'
p4200
aF6.053451980992161e-05
aa(lp4201
S'exalt'
p4202
aF6.053451980992161e-05
aa(lp4203
S'ardent'
p4204
aF9.080177971488241e-05
aa(lp4205
S'gear'
p4206
aF9.080177971488241e-05
aa(lp4207
S'strain'
p4208
aF0.00018160355942976482
aa(lp4209
S'retro'
p4210
aF3.0267259904960804e-05
aa(lp4211
S'trap'
p4212
aF0.00024213807923968643
aa(lp4213
S'vagu'
p4214
aF0.00018160355942976482
aa(lp4215
S'neg'
p4216
aF3.0267259904960804e-05
aa(lp4217
S'nobl'
p4218
aF6.053451980992161e-05
aa(lp4219
S'groggi'
p4220
aF3.0267259904960804e-05
aa(lp4221
S'face-to-fac'
p4222
aF3.0267259904960804e-05
aa(lp4223
S'icon'
p4224
aF6.053451980992161e-05
aa(lp4225
S'tripe'
p4226
aF6.053451980992161e-05
aa(lp4227
S'sink'
p4228
aF0.00018160355942976482
aa(lp4229
S'intend'
p4230
aF0.00018160355942976482
aa(lp4231
S'oddbal'
p4232
aF3.0267259904960804e-05
aa(lp4233
S'conscious'
p4234
aF6.053451980992161e-05
aa(lp4235
S'knockaround'
p4236
aF3.0267259904960804e-05
aa(lp4237
S'systemat'
p4238
aF3.0267259904960804e-05
aa(lp4239
S'densest'
p4240
aF3.0267259904960804e-05
aa(lp4241
S'sandler'
p4242
aF0.00027240533914464724
aa(lp4243
S'drama\\/charact'
p4244
aF3.0267259904960804e-05
aa(lp4245
S"d'etr"
p4246
aF3.0267259904960804e-05
aa(lp4247
S'trope'
p4248
aF6.053451980992161e-05
aa(lp4249
S'beyond-lam'
p4250
aF3.0267259904960804e-05
aa(lp4251
S'begley'
p4252
aF3.0267259904960804e-05
aa(lp4253
S'littl'
p4254
aF0.001392293955628197
aa(lp4255
S'one-dimension'
p4256
aF3.0267259904960804e-05
aa(lp4257
S'teeny-bopp'
p4258
aF3.0267259904960804e-05
aa(lp4259
S'coast'
p4260
aF3.0267259904960804e-05
aa(lp4261
S'agent'
p4262
aF6.053451980992161e-05
aa(lp4263
S'bang-the-drum'
p4264
aF3.0267259904960804e-05
aa(lp4265
S'cleverli'
p4266
aF6.053451980992161e-05
aa(lp4267
S'purportedli'
p4268
aF3.0267259904960804e-05
aa(lp4269
S'ridicul'
p4270
aF0.00021187081933472562
aa(lp4271
S'flashbulb'
p4272
aF3.0267259904960804e-05
aa(lp4273
S'crispin'
p4274
aF3.0267259904960804e-05
aa(lp4275
S'pessimist'
p4276
aF3.0267259904960804e-05
aa(lp4277
S'clumsi'
p4278
aF0.00012106903961984322
aa(lp4279
S'exposit'
p4280
aF3.0267259904960804e-05
aa(lp4281
S'lilia'
p4282
aF6.053451980992161e-05
aa(lp4283
S'tri'
p4284
aF0.0013317594358182754
aa(lp4285
S'flashbulb'
p4286
aF3.0267259904960804e-05
aa(lp4287
S'cheat'
p4288
aF6.053451980992161e-05
aa(lp4289
S'damsel'
p4290
aF3.0267259904960804e-05
aa(lp4291
S'tri'
p4292
aF0.0013317594358182754
aa(lp4293
S'kid'
p4294
aF0.0006961469778140985
aa(lp4295
S'self-defeatingli'
p4296
aF3.0267259904960804e-05
aa(lp4297
S'contain'
p4298
aF0.00012106903961984322
aa(lp4299
S'action'
p4300
aF0.0012712249160083539
aa(lp4301
S'schoolgirl'
p4302
aF3.0267259904960804e-05
aa(lp4303
S'monologu'
p4304
aF3.0267259904960804e-05
aa(lp4305
S'dress'
p4306
aF9.080177971488241e-05
aa(lp4307
S'unwieldi'
p4308
aF3.0267259904960804e-05
aa(lp4309
S'wretchedli'
p4310
aF3.0267259904960804e-05
aa(lp4311
S'evad'
p4312
aF3.0267259904960804e-05
aa(lp4313
S'moral'
p4314
aF0.000302672599049608
aa(lp4315
S'schizo'
p4316
aF3.0267259904960804e-05
aa(lp4317
S'contempl'
p4318
aF6.053451980992161e-05
aa(lp4319
S'tabloid'
p4320
aF6.053451980992161e-05
aa(lp4321
S'admit'
p4322
aF0.00012106903961984322
aa(lp4323
S'2455'
p4324
aF3.0267259904960804e-05
aa(lp4325
S'compar'
p4326
aF0.00012106903961984322
aa(lp4327
S'narrow'
p4328
aF6.053451980992161e-05
aa(lp4329
S'circumstanti'
p4330
aF3.0267259904960804e-05
aa(lp4331
S'cover'
p4332
aF0.00012106903961984322
aa(lp4333
S'blanket'
p4334
aF6.053451980992161e-05
aa(lp4335
S'casual'
p4336
aF6.053451980992161e-05
aa(lp4337
S'fienn'
p4338
aF6.053451980992161e-05
aa(lp4339
S'ital'
p4340
aF3.0267259904960804e-05
aa(lp4341
S'ages-old'
p4342
aF3.0267259904960804e-05
aa(lp4343
S'brain'
p4344
aF0.000151336299524804
aa(lp4345
S'craven'
p4346
aF9.080177971488241e-05
aa(lp4347
S'west'
p4348
aF9.080177971488241e-05
aa(lp4349
S'miss'
p4350
aF0.0005448106782892945
aa(lp4351
S'naught'
p4352
aF3.0267259904960804e-05
aa(lp4353
S'ridicul'
p4354
aF0.00021187081933472562
aa(lp4355
S'neverland'
p4356
aF3.0267259904960804e-05
aa(lp4357
S'wet'
p4358
aF9.080177971488241e-05
aa(lp4359
S'theori'
p4360
aF0.00012106903961984322
aa(lp4361
S'near'
p4362
aF0.000151336299524804
aa(lp4363
S'wig'
p4364
aF3.0267259904960804e-05
aa(lp4365
S'reparte'
p4366
aF3.0267259904960804e-05
aa(lp4367
S'closer'
p4368
aF6.053451980992161e-05
aa(lp4369
S'purdi'
p4370
aF3.0267259904960804e-05
aa(lp4371
S'drunken'
p4372
aF6.053451980992161e-05
aa(lp4373
S'dramat'
p4374
aF0.0005145434183843337
aa(lp4375
S'mediocr'
p4376
aF0.000302672599049608
aa(lp4377
S'piqu'
p4378
aF3.0267259904960804e-05
aa(lp4379
S'unprovok'
p4380
aF3.0267259904960804e-05
aa(lp4381
S'remot'
p4382
aF0.00012106903961984322
aa(lp4383
S'overstay'
p4384
aF3.0267259904960804e-05
aa(lp4385
S'cutthroat'
p4386
aF3.0267259904960804e-05
aa(lp4387
S'libertin'
p4388
aF3.0267259904960804e-05
aa(lp4389
S'vs.'
p4390
aF0.000151336299524804
aa(lp4391
S'come'
p4392
aF0.001392293955628197
aa(lp4393
S'stay'
p4394
aF0.00024213807923968643
aa(lp4395
S'prophet'
p4396
aF3.0267259904960804e-05
aa(lp4397
S'hair'
p4398
aF9.080177971488241e-05
aa(lp4399
S'hack'
p4400
aF9.080177971488241e-05
aa(lp4401
S'thoroughfar'
p4402
aF3.0267259904960804e-05
aa(lp4403
S'result'
p4404
aF0.00033293985895456885
aa(lp4405
S'pretens'
p4406
aF0.00012106903961984322
aa(lp4407
S'flim-flam'
p4408
aF3.0267259904960804e-05
aa(lp4409
S'tri'
p4410
aF0.0013317594358182754
aa(lp4411
S'clownish'
p4412
aF3.0267259904960804e-05
aa(lp4413
S'wore'
p4414
aF6.053451980992161e-05
aa(lp4415
S'contain'
p4416
aF0.00012106903961984322
aa(lp4417
S'flame'
p4418
aF3.0267259904960804e-05
aa(lp4419
S'confus'
p4420
aF0.00021187081933472562
aa(lp4421
S'grunge-pir'
p4422
aF3.0267259904960804e-05
aa(lp4423
S'rattl'
p4424
aF3.0267259904960804e-05
aa(lp4425
S'shtick'
p4426
aF3.0267259904960804e-05
aa(lp4427
S'trickeri'
p4428
aF3.0267259904960804e-05
aa(lp4429
S'detract'
p4430
aF3.0267259904960804e-05
aa(lp4431
S'pulchritud'
p4432
aF3.0267259904960804e-05
aa(lp4433
S'rustic'
p4434
aF3.0267259904960804e-05
aa(lp4435
S'appoint'
p4436
aF3.0267259904960804e-05
aa(lp4437
S'specimen'
p4438
aF3.0267259904960804e-05
aa(lp4439
S'insid'
p4440
aF0.00027240533914464724
aa(lp4441
S'advertis'
p4442
aF6.053451980992161e-05
aa(lp4443
S'omiss'
p4444
aF3.0267259904960804e-05
aa(lp4445
S'hollow'
p4446
aF0.000151336299524804
aa(lp4447
S'snap'
p4448
aF0.00012106903961984322
aa(lp4449
S'prefer'
p4450
aF6.053451980992161e-05
aa(lp4451
S'prefer'
p4452
aF6.053451980992161e-05
aa(lp4453
S'crematorium'
p4454
aF3.0267259904960804e-05
aa(lp4455
S'waver'
p4456
aF3.0267259904960804e-05
aa(lp4457
S'histrion'
p4458
aF6.053451980992161e-05
aa(lp4459
S'seagal'
p4460
aF0.00021187081933472562
aa(lp4461
S'diari'
p4462
aF6.053451980992161e-05
aa(lp4463
S'hair'
p4464
aF9.080177971488241e-05
aa(lp4465
S'time-switch'
p4466
aF3.0267259904960804e-05
aa(lp4467
S'hand'
p4468
aF0.000302672599049608
aa(lp4469
S'fight'
p4470
aF0.00021187081933472562
aa(lp4471
S'hinder'
p4472
aF6.053451980992161e-05
aa(lp4473
S'like'
p4474
aF0.004479554465934199
aa(lp4475
S'tear-drench'
p4476
aF3.0267259904960804e-05
aa(lp4477
S'exploit'
p4478
aF0.00033293985895456885
aa(lp4479
S'unit'
p4480
aF6.053451980992161e-05
aa(lp4481
S'hard-to-swallow'
p4482
aF3.0267259904960804e-05
aa(lp4483
S'assign'
p4484
aF6.053451980992161e-05
aa(lp4485
S'commiser'
p4486
aF3.0267259904960804e-05
aa(lp4487
S'critic'
p4488
aF0.00024213807923968643
aa(lp4489
S'bio-doc'
p4490
aF3.0267259904960804e-05
aa(lp4491
S'masoch'
p4492
aF3.0267259904960804e-05
aa(lp4493
S'clamor'
p4494
aF3.0267259904960804e-05
aa(lp4495
S'tatter'
p4496
aF6.053451980992161e-05
aa(lp4497
S'insid'
p4498
aF0.00027240533914464724
aa(lp4499
S'amini'
p4500
aF3.0267259904960804e-05
aa(lp4501
S'limit'
p4502
aF0.00021187081933472562
aa(lp4503
S'exploit'
p4504
aF0.00033293985895456885
aa(lp4505
S'midway'
p4506
aF6.053451980992161e-05
aa(lp4507
S'cloudi'
p4508
aF3.0267259904960804e-05
aa(lp4509
S'equat'
p4510
aF9.080177971488241e-05
aa(lp4511
S'amish'
p4512
aF3.0267259904960804e-05
aa(lp4513
S'dog'
p4514
aF0.000302672599049608
aa(lp4515
S'cloth'
p4516
aF0.00012106903961984322
aa(lp4517
S'street'
p4518
aF0.00012106903961984322
aa(lp4519
S'exploit'
p4520
aF0.00033293985895456885
aa(lp4521
S'liman'
p4522
aF3.0267259904960804e-05
aa(lp4523
S'simpson'
p4524
aF6.053451980992161e-05
aa(lp4525
S'fistfight'
p4526
aF3.0267259904960804e-05
aa(lp4527
S'grownup'
p4528
aF3.0267259904960804e-05
aa(lp4529
S'unsalvag'
p4530
aF3.0267259904960804e-05
aa(lp4531
S'lolita'
p4532
aF6.053451980992161e-05
aa(lp4533
S'clock'
p4534
aF3.0267259904960804e-05
aa(lp4535
S'tartli'
p4536
aF3.0267259904960804e-05
aa(lp4537
S'co-writ'
p4538
aF0.00012106903961984322
aa(lp4539
S'wind-tunnel'
p4540
aF3.0267259904960804e-05
aa(lp4541
S'instal'
p4542
aF9.080177971488241e-05
aa(lp4543
S'direct-to-video\\/dvd'
p4544
aF3.0267259904960804e-05
aa(lp4545
S'floor'
p4546
aF6.053451980992161e-05
aa(lp4547
S'scuttl'
p4548
aF3.0267259904960804e-05
aa(lp4549
S'adag'
p4550
aF3.0267259904960804e-05
aa(lp4551
S'tri'
p4552
aF0.0013317594358182754
aa(lp4553
S'shrewd'
p4554
aF6.053451980992161e-05
aa(lp4555
S'mid-to-low'
p4556
aF3.0267259904960804e-05
aa(lp4557
S'slap'
p4558
aF0.000151336299524804
aa(lp4559
S'collaps'
p4560
aF0.00012106903961984322
aa(lp4561
S'action'
p4562
aF0.0012712249160083539
aa(lp4563
S'impass'
p4564
aF3.0267259904960804e-05
aa(lp4565
S'unstopp'
p4566
aF3.0267259904960804e-05
aa(lp4567
S'observ'
p4568
aF0.00024213807923968643
aa(lp4569
S'toss-up'
p4570
aF3.0267259904960804e-05
aa(lp4571
S'ton'
p4572
aF6.053451980992161e-05
aa(lp4573
S'hickenloop'
p4574
aF6.053451980992161e-05
aa(lp4575
S'vacant'
p4576
aF3.0267259904960804e-05
aa(lp4577
S'kibosh'
p4578
aF3.0267259904960804e-05
aa(lp4579
S'cinematographi'
p4580
aF0.00012106903961984322
aa(lp4581
S'boot'
p4582
aF6.053451980992161e-05
aa(lp4583
S'slip'
p4584
aF0.00012106903961984322
aa(lp4585
S'engend'
p4586
aF3.0267259904960804e-05
aa(lp4587
S'esteem'
p4588
aF3.0267259904960804e-05
aa(lp4589
S'troubl'
p4590
aF0.00024213807923968643
aa(lp4591
S'critic'
p4592
aF0.00024213807923968643
aa(lp4593
S'grab'
p4594
aF9.080177971488241e-05
aa(lp4595
S'state'
p4596
aF0.00012106903961984322
aa(lp4597
S'95-minut'
p4598
aF3.0267259904960804e-05
aa(lp4599
S'community-colleg'
p4600
aF3.0267259904960804e-05
aa(lp4601
S'thinks-it-i'
p4602
aF3.0267259904960804e-05
aa(lp4603
S'liabil'
p4604
aF3.0267259904960804e-05
aa(lp4605
S'roster'
p4606
aF3.0267259904960804e-05
aa(lp4607
S'baffl'
p4608
aF0.000151336299524804
aa(lp4609
S'christ'
p4610
aF3.0267259904960804e-05
aa(lp4611
S'enigma'
p4612
aF9.080177971488241e-05
aa(lp4613
S'writer'
p4614
aF0.00018160355942976482
aa(lp4615
S'motif'
p4616
aF3.0267259904960804e-05
aa(lp4617
S'cloth'
p4618
aF0.00012106903961984322
aa(lp4619
S'defiant'
p4620
aF3.0267259904960804e-05
aa(lp4621
S'finger'
p4622
aF0.00021187081933472562
aa(lp4623
S'goofi'
p4624
aF0.00021187081933472562
aa(lp4625
S'grit'
p4626
aF3.0267259904960804e-05
aa(lp4627
S'endur'
p4628
aF0.00012106903961984322
aa(lp4629
S'wiel'
p4630
aF3.0267259904960804e-05
aa(lp4631
S'cloth'
p4632
aF0.00012106903961984322
aa(lp4633
S'untal'
p4634
aF6.053451980992161e-05
aa(lp4635
S'blank'
p4636
aF9.080177971488241e-05
aa(lp4637
S'swing'
p4638
aF9.080177971488241e-05
aa(lp4639
S'lacklust'
p4640
aF0.00012106903961984322
aa(lp4641
S'oedekerk'
p4642
aF6.053451980992161e-05
aa(lp4643
S'ditch'
p4644
aF3.0267259904960804e-05
aa(lp4645
S'quinn'
p4646
aF3.0267259904960804e-05
aa(lp4647
S'descript'
p4648
aF6.053451980992161e-05
aa(lp4649
S'brussel'
p4650
aF3.0267259904960804e-05
aa(lp4651
S'demand'
p4652
aF0.00012106903961984322
aa(lp4653
S'patchwork'
p4654
aF3.0267259904960804e-05
aa(lp4655
S'attempt'
p4656
aF0.0005750779381942553
aa(lp4657
S'shrieki'
p4658
aF3.0267259904960804e-05
aa(lp4659
S'tornator'
p4660
aF3.0267259904960804e-05
aa(lp4661
S'rotoscop'
p4662
aF3.0267259904960804e-05
aa(lp4663
S'4ever'
p4664
aF6.053451980992161e-05
aa(lp4665
S'preachy-keen'
p4666
aF3.0267259904960804e-05
aa(lp4667
S'pink'
p4668
aF6.053451980992161e-05
aa(lp4669
S'appli'
p4670
aF9.080177971488241e-05
aa(lp4671
S'honestli'
p4672
aF0.00012106903961984322
aa(lp4673
S'chuckl'
p4674
aF9.080177971488241e-05
aa(lp4675
S're-hash'
p4676
aF3.0267259904960804e-05
aa(lp4677
S'talking-anim'
p4678
aF3.0267259904960804e-05
aa(lp4679
S'allegori'
p4680
aF9.080177971488241e-05
aa(lp4681
S'homosexu'
p4682
aF6.053451980992161e-05
aa(lp4683
S'finger'
p4684
aF0.00021187081933472562
aa(lp4685
S'sascha'
p4686
aF3.0267259904960804e-05
aa(lp4687
S'catalyt'
p4688
aF3.0267259904960804e-05
aa(lp4689
S'tarantino'
p4690
aF3.0267259904960804e-05
aa(lp4691
S'hodgepodg'
p4692
aF3.0267259904960804e-05
aa(lp4693
S'ocean'
p4694
aF3.0267259904960804e-05
aa(lp4695
S'halfwit'
p4696
aF3.0267259904960804e-05
aa(lp4697
S'recip'
p4698
aF3.0267259904960804e-05
aa(lp4699
S'hammer'
p4700
aF6.053451980992161e-05
aa(lp4701
S'appar'
p4702
aF0.000302672599049608
aa(lp4703
S'shallow'
p4704
aF0.00021187081933472562
aa(lp4705
S'infatu'
p4706
aF3.0267259904960804e-05
aa(lp4707
S'disintegr'
p4708
aF6.053451980992161e-05
aa(lp4709
S'offens'
p4710
aF0.00021187081933472562
aa(lp4711
S'daughter'
p4712
aF9.080177971488241e-05
aa(lp4713
S'soccer'
p4714
aF3.0267259904960804e-05
aa(lp4715
S'absenc'
p4716
aF3.0267259904960804e-05
aa(lp4717
S'hamper'
p4718
aF3.0267259904960804e-05
aa(lp4719
S'instanc'
p4720
aF6.053451980992161e-05
aa(lp4721
S'leaven'
p4722
aF6.053451980992161e-05
aa(lp4723
S'grow'
p4724
aF0.00036320711885952963
aa(lp4725
S'claim'
p4726
aF9.080177971488241e-05
aa(lp4727
S'wrist'
p4728
aF3.0267259904960804e-05
aa(lp4729
S'reality-snub'
p4730
aF3.0267259904960804e-05
aa(lp4731
S'reigen'
p4732
aF3.0267259904960804e-05
aa(lp4733
S'off-put'
p4734
aF6.053451980992161e-05
aa(lp4735
S'carpent'
p4736
aF6.053451980992161e-05
aa(lp4737
S'unconvinc'
p4738
aF0.000151336299524804
aa(lp4739
S'gratuit'
p4740
aF6.053451980992161e-05
aa(lp4741
S'outrag'
p4742
aF0.000151336299524804
aa(lp4743
S'bake'
p4744
aF3.0267259904960804e-05
aa(lp4745
S'compar'
p4746
aF0.00012106903961984322
aa(lp4747
S'sympathi'
p4748
aF0.000151336299524804
aa(lp4749
S'relay'
p4750
aF3.0267259904960804e-05
aa(lp4751
S'matur'
p4752
aF9.080177971488241e-05
aa(lp4753
S'sick'
p4754
aF0.00012106903961984322
aa(lp4755
S'reassur'
p4756
aF3.0267259904960804e-05
aa(lp4757
S'drown'
p4758
aF0.00018160355942976482
aa(lp4759
S'invest'
p4760
aF9.080177971488241e-05
aa(lp4761
S'overinfl'
p4762
aF3.0267259904960804e-05
aa(lp4763
S'exercis'
p4764
aF0.0004540088985744121
aa(lp4765
S'undermin'
p4766
aF0.000151336299524804
aa(lp4767
S'undermin'
p4768
aF0.000151336299524804
aa(lp4769
S'smack'
p4770
aF6.053451980992161e-05
aa(lp4771
S'compromis'
p4772
aF6.053451980992161e-05
aa(lp4773
S'motiv'
p4774
aF0.000151336299524804
aa(lp4775
S'final'
p4776
aF0.0005750779381942553
aa(lp4777
S'normal'
p4778
aF6.053451980992161e-05
aa(lp4779
S'butt'
p4780
aF6.053451980992161e-05
aa(lp4781
S'lotteri'
p4782
aF3.0267259904960804e-05
aa(lp4783
S'buzz'
p4784
aF6.053451980992161e-05
aa(lp4785
S'exact'
p4786
aF6.053451980992161e-05
aa(lp4787
S'sober-mind'
p4788
aF3.0267259904960804e-05
aa(lp4789
S'split-screen'
p4790
aF3.0267259904960804e-05
aa(lp4791
S'templ'
p4792
aF3.0267259904960804e-05
aa(lp4793
S'flick'
p4794
aF0.0007264142377190593
aa(lp4795
S'fincher'
p4796
aF6.053451980992161e-05
aa(lp4797
S'knee-jerk'
p4798
aF3.0267259904960804e-05
aa(lp4799
S'bull'
p4800
aF3.0267259904960804e-05
aa(lp4801
S'bulk'
p4802
aF3.0267259904960804e-05
aa(lp4803
S'sit'
p4804
aF0.00048427615847937286
aa(lp4805
S'writer'
p4806
aF0.00018160355942976482
aa(lp4807
S'bust'
p4808
aF3.0267259904960804e-05
aa(lp4809
S'tinsel'
p4810
aF3.0267259904960804e-05
aa(lp4811
S'busi'
p4812
aF0.00018160355942976482
aa(lp4813
S'leather'
p4814
aF6.053451980992161e-05
aa(lp4815
S'burr'
p4816
aF6.053451980992161e-05
aa(lp4817
S'gone'
p4818
aF0.00024213807923968643
aa(lp4819
S'woozi'
p4820
aF3.0267259904960804e-05
aa(lp4821
S'rah-rah'
p4822
aF3.0267259904960804e-05
aa(lp4823
S'sink'
p4824
aF0.00018160355942976482
aa(lp4825
S'sing'
p4826
aF6.053451980992161e-05
aa(lp4827
S'impostor'
p4828
aF0.00012106903961984322
aa(lp4829
S'boredom'
p4830
aF6.053451980992161e-05
aa(lp4831
S'tone'
p4832
aF0.00036320711885952963
aa(lp4833
S'water-bound'
p4834
aF3.0267259904960804e-05
aa(lp4835
S'promis'
p4836
aF0.00042374163866945125
aa(lp4837
S'promis'
p4838
aF0.00042374163866945125
aa(lp4839
S'retail'
p4840
aF3.0267259904960804e-05
aa(lp4841
S'morri'
p4842
aF3.0267259904960804e-05
aa(lp4843
S'attempt'
p4844
aF0.0005750779381942553
aa(lp4845
S're-work'
p4846
aF3.0267259904960804e-05
aa(lp4847
S'left'
p4848
aF0.00033293985895456885
aa(lp4849
S'chocol'
p4850
aF6.053451980992161e-05
aa(lp4851
S'baseball-play'
p4852
aF3.0267259904960804e-05
aa(lp4853
S'rail'
p4854
aF3.0267259904960804e-05
aa(lp4855
S'turgid'
p4856
aF6.053451980992161e-05
aa(lp4857
S'musclefest'
p4858
aF3.0267259904960804e-05
aa(lp4859
S'daze'
p4860
aF3.0267259904960804e-05
aa(lp4861
S'kahn'
p4862
aF6.053451980992161e-05
aa(lp4863
S'melang'
p4864
aF3.0267259904960804e-05
aa(lp4865
S'workout'
p4866
aF3.0267259904960804e-05
aa(lp4867
S'templ'
p4868
aF3.0267259904960804e-05
aa(lp4869
S'spread'
p4870
aF6.053451980992161e-05
aa(lp4871
S'fuss'
p4872
aF3.0267259904960804e-05
aa(lp4873
S'scorpion'
p4874
aF3.0267259904960804e-05
aa(lp4875
S'auteur'
p4876
aF3.0267259904960804e-05
aa(lp4877
S'kane'
p4878
aF3.0267259904960804e-05
aa(lp4879
S'open-mouth'
p4880
aF3.0267259904960804e-05
aa(lp4881
S'tighter'
p4882
aF3.0267259904960804e-05
aa(lp4883
S'retro-refit'
p4884
aF3.0267259904960804e-05
aa(lp4885
S'hollywood-'
p4886
aF3.0267259904960804e-05
aa(lp4887
S'outright'
p4888
aF3.0267259904960804e-05
aa(lp4889
S'pandora'
p4890
aF3.0267259904960804e-05
aa(lp4891
S'trombon'
p4892
aF3.0267259904960804e-05
aa(lp4893
S'bug-ey'
p4894
aF6.053451980992161e-05
aa(lp4895
S'circular'
p4896
aF3.0267259904960804e-05
aa(lp4897
S'ship'
p4898
aF6.053451980992161e-05
aa(lp4899
S'self-seri'
p4900
aF3.0267259904960804e-05
aa(lp4901
S'outrag'
p4902
aF0.000151336299524804
aa(lp4903
S'overstimul'
p4904
aF3.0267259904960804e-05
aa(lp4905
S'intric'
p4906
aF6.053451980992161e-05
aa(lp4907
S'favor'
p4908
aF0.00021187081933472562
aa(lp4909
S'congeni'
p4910
aF3.0267259904960804e-05
aa(lp4911
S'gener'
p4912
aF0.0006961469778140985
aa(lp4913
S'neg'
p4914
aF3.0267259904960804e-05
aa(lp4915
S'unashamedli'
p4916
aF6.053451980992161e-05
aa(lp4917
S'quicksand'
p4918
aF3.0267259904960804e-05
aa(lp4919
S'land-bas'
p4920
aF3.0267259904960804e-05
aa(lp4921
S'attack'
p4922
aF6.053451980992161e-05
aa(lp4923
S'gimmicki'
p4924
aF3.0267259904960804e-05
aa(lp4925
S'schlock'
p4926
aF3.0267259904960804e-05
aa(lp4927
S'attack'
p4928
aF6.053451980992161e-05
aa(lp4929
S'bounc'
p4930
aF6.053451980992161e-05
aa(lp4931
S'spindli'
p4932
aF3.0267259904960804e-05
aa(lp4933
S'guardian'
p4934
aF3.0267259904960804e-05
aa(lp4935
S'none'
p4936
aF0.000302672599049608
aa(lp4937
S'humili'
p4938
aF3.0267259904960804e-05
aa(lp4939
S'honk'
p4940
aF3.0267259904960804e-05
aa(lp4941
S'toolbag'
p4942
aF3.0267259904960804e-05
aa(lp4943
S'limit'
p4944
aF0.00021187081933472562
aa(lp4945
S'shekhar'
p4946
aF3.0267259904960804e-05
aa(lp4947
S'sell'
p4948
aF9.080177971488241e-05
aa(lp4949
S'observ'
p4950
aF0.00024213807923968643
aa(lp4951
S'observ'
p4952
aF0.00024213807923968643
aa(lp4953
S'chasm'
p4954
aF3.0267259904960804e-05
aa(lp4955
S'sentiment'
p4956
aF0.0004540088985744121
aa(lp4957
S'sticki'
p4958
aF6.053451980992161e-05
aa(lp4959
S'escap'
p4960
aF0.00024213807923968643
aa(lp4961
S'escap'
p4962
aF0.00024213807923968643
aa(lp4963
S'immacul'
p4964
aF3.0267259904960804e-05
aa(lp4965
S'twirl'
p4966
aF3.0267259904960804e-05
aa(lp4967
S'autobiograph'
p4968
aF3.0267259904960804e-05
aa(lp4969
S'overlong'
p4970
aF6.053451980992161e-05
aa(lp4971
S'soldier'
p4972
aF0.00012106903961984322
aa(lp4973
S'amc'
p4974
aF3.0267259904960804e-05
aa(lp4975
S'breitbart'
p4976
aF3.0267259904960804e-05
aa(lp4977
S'tomfooleri'
p4978
aF3.0267259904960804e-05
aa(lp4979
S'guessabl'
p4980
aF3.0267259904960804e-05
aa(lp4981
S'wafer-thin'
p4982
aF3.0267259904960804e-05
aa(lp4983
S'downplay'
p4984
aF3.0267259904960804e-05
aa(lp4985
S'tardier'
p4986
aF3.0267259904960804e-05
aa(lp4987
S'discard'
p4988
aF3.0267259904960804e-05
aa(lp4989
S'dynamit'
p4990
aF3.0267259904960804e-05
aa(lp4991
S'nuditi'
p4992
aF3.0267259904960804e-05
aa(lp4993
S'demm'
p4994
aF9.080177971488241e-05
aa(lp4995
S'curious'
p4996
aF9.080177971488241e-05
aa(lp4997
S'half-dozen'
p4998
aF3.0267259904960804e-05
aa(lp4999
S'claim'
p5000
aF9.080177971488241e-05
aa(lp5001
S'friend'
p5002
aF0.00021187081933472562
aa(lp5003
S'flick'
p5004
aF0.0007264142377190593
aa(lp5005
S'chuckl'
p5006
aF9.080177971488241e-05
aa(lp5007
S'hollywood-'
p5008
aF3.0267259904960804e-05
aa(lp5009
S'third'
p5010
aF9.080177971488241e-05
aa(lp5011
S'glossi'
p5012
aF9.080177971488241e-05
aa(lp5013
S'humbuggeri'
p5014
aF3.0267259904960804e-05
aa(lp5015
S'healthi'
p5016
aF3.0267259904960804e-05
aa(lp5017
S'save'
p5018
aF0.000302672599049608
aa(lp5019
S'sentiment'
p5020
aF0.0004540088985744121
aa(lp5021
S'heavi'
p5022
aF0.00024213807923968643
aa(lp5023
S'and-miss'
p5024
aF3.0267259904960804e-05
aa(lp5025
S'mouthpiec'
p5026
aF3.0267259904960804e-05
aa(lp5027
S'morph'
p5028
aF3.0267259904960804e-05
aa(lp5029
S'imperfect'
p5030
aF3.0267259904960804e-05
aa(lp5031
S'signpost'
p5032
aF6.053451980992161e-05
aa(lp5033
S'undermin'
p5034
aF0.000151336299524804
aa(lp5035
S'complain'
p5036
aF3.0267259904960804e-05
aa(lp5037
S'split'
p5038
aF9.080177971488241e-05
aa(lp5039
S'drown'
p5040
aF0.00018160355942976482
aa(lp5041
S'exagger'
p5042
aF6.053451980992161e-05
aa(lp5043
S'craven'
p5044
aF9.080177971488241e-05
aa(lp5045
S'cellular'
p5046
aF3.0267259904960804e-05
aa(lp5047
S'inher'
p5048
aF0.00012106903961984322
aa(lp5049
S'plumb'
p5050
aF6.053451980992161e-05
aa(lp5051
S'support'
p5052
aF0.000151336299524804
aa(lp5053
S'drop'
p5054
aF9.080177971488241e-05
aa(lp5055
S'satir'
p5056
aF0.00024213807923968643
aa(lp5057
S'rerun'
p5058
aF6.053451980992161e-05
aa(lp5059
S'snake'
p5060
aF6.053451980992161e-05
aa(lp5061
S'card'
p5062
aF9.080177971488241e-05
aa(lp5063
S'clerk'
p5064
aF3.0267259904960804e-05
aa(lp5065
S'escapad'
p5066
aF3.0267259904960804e-05
aa(lp5067
S'snap'
p5068
aF0.00012106903961984322
aa(lp5069
S'drive-bi'
p5070
aF3.0267259904960804e-05
aa(lp5071
S'ocean'
p5072
aF3.0267259904960804e-05
aa(lp5073
S'particip'
p5074
aF9.080177971488241e-05
aa(lp5075
S'scene'
p5076
aF0.0008474832773389025
aa(lp5077
S'recogn'
p5078
aF6.053451980992161e-05
aa(lp5079
S'merchant-ivori'
p5080
aF3.0267259904960804e-05
aa(lp5081
S'flicker'
p5082
aF3.0267259904960804e-05
aa(lp5083
S'ensur'
p5084
aF6.053451980992161e-05
aa(lp5085
S'long-on-the-shelf'
p5086
aF3.0267259904960804e-05
aa(lp5087
S'censur'
p5088
aF3.0267259904960804e-05
aa(lp5089
S'detach'
p5090
aF0.00012106903961984322
aa(lp5091
S'weak'
p5092
aF0.00021187081933472562
aa(lp5093
S'rise'
p5094
aF0.00027240533914464724
aa(lp5095
S'self-promot'
p5096
aF3.0267259904960804e-05
aa(lp5097
S'spark'
p5098
aF0.00018160355942976482
aa(lp5099
S'rough-trad'
p5100
aF3.0267259904960804e-05
aa(lp5101
S'hole'
p5102
aF0.00021187081933472562
aa(lp5103
S'sustain'
p5104
aF0.00024213807923968643
aa(lp5105
S'depth'
p5106
aF0.00018160355942976482
aa(lp5107
S'lackadais'
p5108
aF3.0267259904960804e-05
aa(lp5109
S'seal'
p5110
aF9.080177971488241e-05
aa(lp5111
S'freddi'
p5112
aF0.00012106903961984322
aa(lp5113
S'playstat'
p5114
aF3.0267259904960804e-05
aa(lp5115
S'werewolf'
p5116
aF3.0267259904960804e-05
aa(lp5117
S'farrelli'
p5118
aF9.080177971488241e-05
aa(lp5119
S'blueprint'
p5120
aF3.0267259904960804e-05
aa(lp5121
S'empower'
p5122
aF6.053451980992161e-05
aa(lp5123
S'agit'
p5124
aF3.0267259904960804e-05
aa(lp5125
S'unnam'
p5126
aF3.0267259904960804e-05
aa(lp5127
S'territori'
p5128
aF0.000151336299524804
aa(lp5129
S'length'
p5130
aF0.00024213807923968643
aa(lp5131
S'zinger'
p5132
aF3.0267259904960804e-05
aa(lp5133
S'trot'
p5134
aF6.053451980992161e-05
aa(lp5135
S'materi'
p5136
aF0.0007869487575289809
aa(lp5137
S'hound'
p5138
aF3.0267259904960804e-05
aa(lp5139
S'pad'
p5140
aF0.00012106903961984322
aa(lp5141
S'twirl'
p5142
aF3.0267259904960804e-05
aa(lp5143
S'thrust'
p5144
aF6.053451980992161e-05
aa(lp5145
S'trope'
p5146
aF6.053451980992161e-05
aa(lp5147
S'deficit'
p5148
aF3.0267259904960804e-05
aa(lp5149
S'reduc'
p5150
aF9.080177971488241e-05
aa(lp5151
S'ryder'
p5152
aF3.0267259904960804e-05
aa(lp5153
S'deuc'
p5154
aF9.080177971488241e-05
aa(lp5155
S'skewer'
p5156
aF3.0267259904960804e-05
aa(lp5157
S'galvan'
p5158
aF3.0267259904960804e-05
aa(lp5159
S'slow-mov'
p5160
aF3.0267259904960804e-05
aa(lp5161
S'switch'
p5162
aF3.0267259904960804e-05
aa(lp5163
S'sell'
p5164
aF9.080177971488241e-05
aa(lp5165
S'bratti'
p5166
aF3.0267259904960804e-05
aa(lp5167
S'24-and-und'
p5168
aF3.0267259904960804e-05
aa(lp5169
S'pay-off'
p5170
aF3.0267259904960804e-05
aa(lp5171
S'merchant'
p5172
aF9.080177971488241e-05
aa(lp5173
S'lip-gloss'
p5174
aF3.0267259904960804e-05
aa(lp5175
S'fishi'
p5176
aF3.0267259904960804e-05
aa(lp5177
S'disastr'
p5178
aF3.0267259904960804e-05
aa(lp5179
S'wear'
p5180
aF0.00021187081933472562
aa(lp5181
S'start'
p5182
aF0.000605345198099216
aa(lp5183
S'lag'
p5184
aF3.0267259904960804e-05
aa(lp5185
S'consequ'
p5186
aF9.080177971488241e-05
aa(lp5187
S'out-of-kilt'
p5188
aF3.0267259904960804e-05
aa(lp5189
S'spit'
p5190
aF6.053451980992161e-05
aa(lp5191
S'leblanc'
p5192
aF3.0267259904960804e-05
aa(lp5193
S'erod'
p5194
aF3.0267259904960804e-05
aa(lp5195
S'sidewalk'
p5196
aF3.0267259904960804e-05
aa(lp5197
S'reveri'
p5198
aF3.0267259904960804e-05
aa(lp5199
S'carousel'
p5200
aF3.0267259904960804e-05
aa(lp5201
S'middle-class'
p5202
aF6.053451980992161e-05
aa(lp5203
S'snipe'
p5204
aF9.080177971488241e-05
aa(lp5205
S'suspect'
p5206
aF0.00021187081933472562
aa(lp5207
S'circuit'
p5208
aF6.053451980992161e-05
aa(lp5209
S'spine'
p5210
aF3.0267259904960804e-05
aa(lp5211
S'freak'
p5212
aF0.00012106903961984322
aa(lp5213
S'imperfect'
p5214
aF3.0267259904960804e-05
aa(lp5215
S'major'
p5216
aF0.00021187081933472562
aa(lp5217
S'ambit'
p5218
aF9.080177971488241e-05
aa(lp5219
S'equat'
p5220
aF9.080177971488241e-05
aa(lp5221
S'broken'
p5222
aF9.080177971488241e-05
aa(lp5223
S'slo-mo'
p5224
aF6.053451980992161e-05
aa(lp5225
S'asleep'
p5226
aF3.0267259904960804e-05
aa(lp5227
S'artsi'
p5228
aF9.080177971488241e-05
aa(lp5229
S'pabulum'
p5230
aF3.0267259904960804e-05
aa(lp5231
S'stasi'
p5232
aF3.0267259904960804e-05
aa(lp5233
S'ensu'
p5234
aF3.0267259904960804e-05
aa(lp5235
S'rees'
p5236
aF3.0267259904960804e-05
aa(lp5237
S'self-imag'
p5238
aF3.0267259904960804e-05
aa(lp5239
S'sheridan'
p5240
aF6.053451980992161e-05
aa(lp5241
S'fusti'
p5242
aF3.0267259904960804e-05
aa(lp5243
S'figur'
p5244
aF0.00024213807923968643
aa(lp5245
S'brio'
p5246
aF6.053451980992161e-05
aa(lp5247
S'figur'
p5248
aF0.00024213807923968643
aa(lp5249
S'research'
p5250
aF3.0267259904960804e-05
aa(lp5251
S'sisterhood'
p5252
aF3.0267259904960804e-05
aa(lp5253
S'trifl'
p5254
aF0.000151336299524804
aa(lp5255
S'fals'
p5256
aF9.080177971488241e-05
aa(lp5257
S'poorly-construct'
p5258
aF3.0267259904960804e-05
aa(lp5259
S'massiv'
p5260
aF3.0267259904960804e-05
aa.