(lp0
(lp1
S''
p2
aI0
aa(lp3
S'piment'
p4
aF4.126263668248401e-05
aa(lp5
S'draw'
p6
aF0.00016505054672993604
aa(lp7
S'burkinab'
p8
aF4.126263668248401e-05
aa(lp9
S'digest'
p10
aF4.126263668248401e-05
aa(lp11
S'analyz'
p12
aF0.00016505054672993604
aa(lp13
S'anti-harri'
p14
aF4.126263668248401e-05
aa(lp15
S'vulgar'
p16
aF0.00012378791004745204
aa(lp17
S'snowbal'
p18
aF4.126263668248401e-05
aa(lp19
S'miscellan'
p20
aF4.126263668248401e-05
aa(lp21
S'cliff'
p22
aF4.126263668248401e-05
aa(lp23
S'updat'
p24
aF8.252527336496802e-05
aa(lp25
S'roughag'
p26
aF4.126263668248401e-05
aa(lp27
S'conspicu'
p28
aF4.126263668248401e-05
aa(lp29
S'spend'
p30
aF0.00016505054672993604
aa(lp31
S'brittl'
p32
aF4.126263668248401e-05
aa(lp33
S'shadow'
p34
aF0.00012378791004745204
aa(lp35
S'whirl'
p36
aF8.252527336496802e-05
aa(lp37
S'zeal'
p38
aF8.252527336496802e-05
aa(lp39
S'ascend'
p40
aF4.126263668248401e-05
aa(lp41
S'murk'
p42
aF4.126263668248401e-05
aa(lp43
S'contract'
p44
aF4.126263668248401e-05
aa(lp45
S'sturg'
p46
aF4.126263668248401e-05
aa(lp47
S'prison'
p48
aF0.00012378791004745204
aa(lp49
S'root'
p50
aF0.00020631318341242006
aa(lp51
S'span'
p52
aF8.252527336496802e-05
aa(lp53
S'admir'
p54
aF0.0003301010934598721
aa(lp55
S'admir'
p56
aF0.0003301010934598721
aa(lp57
S'spare'
p58
aF0.00012378791004745204
aa(lp59
S'argu'
p60
aF0.00012378791004745204
aa(lp61
S'uneasili'
p62
aF4.126263668248401e-05
aa(lp63
S'vast'
p64
aF4.126263668248401e-05
aa(lp65
S'subvers'
p66
aF8.252527336496802e-05
aa(lp67
S'matter'
p68
aF0.0007427274602847122
aa(lp69
S'armenian'
p70
aF4.126263668248401e-05
aa(lp71
S'zest'
p72
aF4.126263668248401e-05
aa(lp73
S'overh'
p74
aF4.126263668248401e-05
aa(lp75
S'dictum'
p76
aF4.126263668248401e-05
aa(lp77
S'undo'
p78
aF4.126263668248401e-05
aa(lp79
S'origin'
p80
aF0.0008252527336496802
aa(lp81
S'glass'
p82
aF8.252527336496802e-05
aa(lp83
S'tune'
p84
aF8.252527336496802e-05
aa(lp85
S'cross'
p86
aF0.0002475758200949041
aa(lp87
S'collis'
p88
aF4.126263668248401e-05
aa(lp89
S'plod'
p90
aF0.00020631318341242006
aa(lp91
S'domin'
p92
aF0.0002475758200949041
aa(lp93
S'melodramat'
p94
aF0.00020631318341242006
aa(lp95
S'titular'
p96
aF4.126263668248401e-05
aa(lp97
S'oral'
p98
aF4.126263668248401e-05
aa(lp99
S'croze'
p100
aF4.126263668248401e-05
aa(lp101
S'larger'
p102
aF8.252527336496802e-05
aa(lp103
S"'s"
p104
aF0.017330307406643285
aa(lp105
S'warner'
p106
aF8.252527336496802e-05
aa(lp107
S'rental'
p108
aF0.00012378791004745204
aa(lp109
S'send'
p110
aF0.00012378791004745204
aa(lp111
S'gai'
p112
aF4.126263668248401e-05
aa(lp113
S'42'
p114
aF4.126263668248401e-05
aa(lp115
S'13'
p116
aF8.252527336496802e-05
aa(lp117
S'12'
p118
aF4.126263668248401e-05
aa(lp119
S'dumber'
p120
aF4.126263668248401e-05
aa(lp121
S'half-hour'
p122
aF4.126263668248401e-05
aa(lp123
S'quit'
p124
aF0.0010315659170621002
aa(lp125
S'styx'
p126
aF4.126263668248401e-05
aa(lp127
S'83'
p128
aF4.126263668248401e-05
aa(lp129
S'80'
p130
aF8.252527336496802e-05
aa(lp131
S'white'
p132
aF0.00020631318341242006
aa(lp133
S'solips'
p134
aF4.126263668248401e-05
aa(lp135
S'properli'
p136
aF8.252527336496802e-05
aa(lp137
S'singer'
p138
aF8.252527336496802e-05
aa(lp139
S'engin'
p140
aF4.126263668248401e-05
aa(lp141
S'vanish'
p142
aF4.126263668248401e-05
aa(lp143
S'65'
p144
aF4.126263668248401e-05
aa(lp145
S'51'
p146
aF0.00012378791004745204
aa(lp147
S'descend'
p148
aF4.126263668248401e-05
aa(lp149
S'euro-trash'
p150
aF4.126263668248401e-05
aa(lp151
S'sale'
p152
aF4.126263668248401e-05
aa(lp153
S'broomstick'
p154
aF4.126263668248401e-05
aa(lp155
S'dedic'
p156
aF0.00012378791004745204
aa(lp157
S'steam'
p158
aF4.126263668248401e-05
aa(lp159
S'shock'
p160
aF0.0003713637301423561
aa(lp161
S'excess'
p162
aF0.00016505054672993604
aa(lp163
S'stilt'
p164
aF0.00012378791004745204
aa(lp165
S'implic'
p166
aF4.126263668248401e-05
aa(lp167
S'properti'
p168
aF4.126263668248401e-05
aa(lp169
S'pretti'
p170
aF0.0006602021869197441
aa(lp171
S'matter'
p172
aF0.0007427274602847122
aa(lp173
S'egoyan'
p174
aF4.126263668248401e-05
aa(lp175
S'date'
p176
aF0.0002888384567773881
aa(lp177
S'a.'
p178
aF8.252527336496802e-05
aa(lp179
S'holi'
p180
aF4.126263668248401e-05
aa(lp181
S'dispar'
p182
aF8.252527336496802e-05
aa(lp183
S'janic'
p184
aF8.252527336496802e-05
aa(lp185
S'hook'
p186
aF8.252527336496802e-05
aa(lp187
S'le'
p188
aF0.00012378791004745204
aa(lp189
S'li'
p190
aF4.126263668248401e-05
aa(lp191
S'la'
p192
aF4.126263668248401e-05
aa(lp193
S'lo'
p194
aF4.126263668248401e-05
aa(lp195
S'outweigh'
p196
aF4.126263668248401e-05
aa(lp197
S'masturb'
p198
aF4.126263668248401e-05
aa(lp199
S'lovabl'
p200
aF4.126263668248401e-05
aa(lp201
S'hood'
p202
aF4.126263668248401e-05
aa(lp203
S'helmer'
p204
aF4.126263668248401e-05
aa(lp205
S'stew'
p206
aF4.126263668248401e-05
aa(lp207
S'innuendo'
p208
aF4.126263668248401e-05
aa(lp209
S'grandstand'
p210
aF4.126263668248401e-05
aa(lp211
S'sight'
p212
aF0.00016505054672993604
aa(lp213
S'sy'
p214
aF4.126263668248401e-05
aa(lp215
S'messag'
p216
aF0.0005364142768722922
aa(lp217
S'madmen'
p218
aF4.126263668248401e-05
aa(lp219
S'depend'
p220
aF0.0002888384567773881
aa(lp221
S'ww'
p222
aF4.126263668248401e-05
aa(lp223
S'cann'
p224
aF8.252527336496802e-05
aa(lp225
S's.'
p226
aF4.126263668248401e-05
aa(lp227
S'struck'
p228
aF4.126263668248401e-05
aa(lp229
S'femin'
p230
aF8.252527336496802e-05
aa(lp231
S'swooni'
p232
aF4.126263668248401e-05
aa(lp233
S'actual'
p234
aF0.0005364142768722922
aa(lp235
S'shadow'
p236
aF0.00012378791004745204
aa(lp237
S'cahil'
p238
aF4.126263668248401e-05
aa(lp239
S'oprahf'
p240
aF4.126263668248401e-05
aa(lp241
S'river'
p242
aF4.126263668248401e-05
aa(lp243
S'land'
p244
aF8.252527336496802e-05
aa(lp245
S'sausag'
p246
aF4.126263668248401e-05
aa(lp247
S'childish'
p248
aF8.252527336496802e-05
aa(lp249
S'suggest'
p250
aF0.00016505054672993604
aa(lp251
S'surviv'
p252
aF0.00016505054672993604
aa(lp253
S'eh'
p254
aF4.126263668248401e-05
aa(lp255
S'charleston'
p256
aF4.126263668248401e-05
aa(lp257
S'shape'
p258
aF8.252527336496802e-05
aa(lp259
S'lighten'
p260
aF4.126263668248401e-05
aa(lp261
S'suggest'
p262
aF0.00016505054672993604
aa(lp263
S'moviego'
p264
aF0.00012378791004745204
aa(lp265
S'ai'
p266
aF0.00016505054672993604
aa(lp267
S'ad'
p268
aF8.252527336496802e-05
aa(lp269
S'realm'
p270
aF4.126263668248401e-05
aa(lp271
S'ol'
p272
aF4.126263668248401e-05
aa(lp273
S'squeez'
p274
aF8.252527336496802e-05
aa(lp275
S'variat'
p276
aF4.126263668248401e-05
aa(lp277
S'life-s'
p278
aF4.126263668248401e-05
aa(lp279
S'ice'
p280
aF0.0003301010934598721
aa(lp281
S'le'
p282
aF0.00012378791004745204
aa(lp283
S'hi'
p284
aF0.0028883845677738808
aa(lp285
S'contin'
p286
aF4.126263668248401e-05
aa(lp287
S'readi'
p288
aF8.252527336496802e-05
aa(lp289
S'pulp'
p290
aF0.00012378791004745204
aa(lp291
S'vu'
p292
aF8.252527336496802e-05
aa(lp293
S'behan'
p294
aF8.252527336496802e-05
aa(lp295
S'si'
p296
aF4.126263668248401e-05
aa(lp297
S'open'
p298
aF0.0003713637301423561
aa(lp299
S'appear'
p300
aF0.0002888384567773881
aa(lp301
S'cours'
p302
aF0.00020631318341242006
aa(lp303
S'court'
p304
aF8.252527336496802e-05
aa(lp305
S'grimli'
p306
aF4.126263668248401e-05
aa(lp307
S'yield'
p308
aF4.126263668248401e-05
aa(lp309
S'blood'
p310
aF0.00012378791004745204
aa(lp311
S'menac'
p312
aF8.252527336496802e-05
aa(lp313
S'disease-of'
p314
aF4.126263668248401e-05
aa(lp315
S'distinct'
p316
aF0.00012378791004745204
aa(lp317
S'glib'
p318
aF4.126263668248401e-05
aa(lp319
S'alacr'
p320
aF4.126263668248401e-05
aa(lp321
S'overstuf'
p322
aF8.252527336496802e-05
aa(lp323
S'novel'
p324
aF0.0002888384567773881
aa(lp325
S'pander'
p326
aF8.252527336496802e-05
aa(lp327
S'unemot'
p328
aF4.126263668248401e-05
aa(lp329
S'herzog'
p330
aF8.252527336496802e-05
aa(lp331
S'neoreal'
p332
aF4.126263668248401e-05
aa(lp333
S'davi'
p334
aF0.00012378791004745204
aa(lp335
S'undercov'
p336
aF8.252527336496802e-05
aa(lp337
S'deliver'
p338
aF4.126263668248401e-05
aa(lp339
S'recov'
p340
aF8.252527336496802e-05
aa(lp341
S'dishonor'
p342
aF4.126263668248401e-05
aa(lp343
S'jacquot'
p344
aF8.252527336496802e-05
aa(lp345
S'channel-styl'
p346
aF4.126263668248401e-05
aa(lp347
S'glass'
p348
aF8.252527336496802e-05
aa(lp349
S'clean'
p350
aF0.00012378791004745204
aa(lp351
S'blood-soak'
p352
aF4.126263668248401e-05
aa(lp353
S'learn'
p354
aF0.00020631318341242006
aa(lp355
S'argument'
p356
aF8.252527336496802e-05
aa(lp357
S'semi-throwback'
p358
aF4.126263668248401e-05
aa(lp359
S'nostalgia'
p360
aF0.0002475758200949041
aa(lp361
S'dare'
p362
aF0.00020631318341242006
aa(lp363
S'ayala'
p364
aF4.126263668248401e-05
aa(lp365
S'question'
p366
aF0.0003301010934598721
aa(lp367
S'recount'
p368
aF4.126263668248401e-05
aa(lp369
S'updat'
p370
aF8.252527336496802e-05
aa(lp371
S'footnot'
p372
aF8.252527336496802e-05
aa(lp373
S'dare'
p374
aF0.00020631318341242006
aa(lp375
S'underdog'
p376
aF8.252527336496802e-05
aa(lp377
S'loveless'
p378
aF4.126263668248401e-05
aa(lp379
S'overkil'
p380
aF8.252527336496802e-05
aa(lp381
S'ana'
p382
aF4.126263668248401e-05
aa(lp383
S'accompani'
p384
aF8.252527336496802e-05
aa(lp385
S'staid'
p386
aF4.126263668248401e-05
aa(lp387
S'preposter'
p388
aF0.00012378791004745204
aa(lp389
S'stake'
p390
aF8.252527336496802e-05
aa(lp391
S'vampir'
p392
aF0.00020631318341242006
aa(lp393
S'nine'
p394
aF4.126263668248401e-05
aa(lp395
S'piquant'
p396
aF4.126263668248401e-05
aa(lp397
S'chain'
p398
aF4.126263668248401e-05
aa(lp399
S'apolog'
p400
aF4.126263668248401e-05
aa(lp401
S'indian'
p402
aF0.00012378791004745204
aa(lp403
S'nike'
p404
aF4.126263668248401e-05
aa(lp405
S'howler'
p406
aF4.126263668248401e-05
aa(lp407
S'stand'
p408
aF0.0003301010934598721
aa(lp409
S'enigmat'
p410
aF0.00012378791004745204
aa(lp411
S'odour'
p412
aF4.126263668248401e-05
aa(lp413
S'stomach'
p414
aF8.252527336496802e-05
aa(lp415
S'welfar'
p416
aF4.126263668248401e-05
aa(lp417
S'remain'
p418
aF0.0003301010934598721
aa(lp419
S'tambor'
p420
aF8.252527336496802e-05
aa(lp421
S'vampir'
p422
aF0.00020631318341242006
aa(lp423
S'machin'
p424
aF0.0002475758200949041
aa(lp425
S'abli'
p426
aF4.126263668248401e-05
aa(lp427
S'danger'
p428
aF0.00016505054672993604
aa(lp429
S'glacial'
p430
aF4.126263668248401e-05
aa(lp431
S'caught'
p432
aF8.252527336496802e-05
aa(lp433
S'vulgar'
p434
aF0.00012378791004745204
aa(lp435
S'butterfli'
p436
aF4.126263668248401e-05
aa(lp437
S'black-own'
p438
aF4.126263668248401e-05
aa(lp439
S'vaudevil'
p440
aF4.126263668248401e-05
aa(lp441
S'mortarboard'
p442
aF4.126263668248401e-05
aa(lp443
S'heist'
p444
aF8.252527336496802e-05
aa(lp445
S'distinct'
p446
aF0.00012378791004745204
aa(lp447
S'updat'
p448
aF8.252527336496802e-05
aa(lp449
S'london'
p450
aF8.252527336496802e-05
aa(lp451
S'emphas'
p452
aF0.00012378791004745204
aa(lp453
S'emphas'
p454
aF0.00012378791004745204
aa(lp455
S'mourn'
p456
aF8.252527336496802e-05
aa(lp457
S'anthropolog'
p458
aF4.126263668248401e-05
aa(lp459
S'evolv'
p460
aF8.252527336496802e-05
aa(lp461
S'evolv'
p462
aF8.252527336496802e-05
aa(lp463
S'insurrect'
p464
aF4.126263668248401e-05
aa(lp465
S'bow'
p466
aF4.126263668248401e-05
aa(lp467
S'boy'
p468
aF0.0004538890035073241
aa(lp469
S'clan'
p470
aF4.126263668248401e-05
aa(lp471
S'freundlich'
p472
aF8.252527336496802e-05
aa(lp473
S'faso'
p474
aF4.126263668248401e-05
aa(lp475
S'notion'
p476
aF8.252527336496802e-05
aa(lp477
S'depend'
p478
aF0.0002888384567773881
aa(lp479
S'juvenil'
p480
aF4.126263668248401e-05
aa(lp481
S'cut'
p482
aF0.0003301010934598721
aa(lp483
S'code'
p484
aF0.00012378791004745204
aa(lp485
S'coat'
p486
aF8.252527336496802e-05
aa(lp487
S'lear'
p488
aF4.126263668248401e-05
aa(lp489
S'suffici'
p490
aF4.126263668248401e-05
aa(lp491
S'sight'
p492
aF0.00016505054672993604
aa(lp493
S'frankenstein-lik'
p494
aF4.126263668248401e-05
aa(lp495
S'pulsat'
p496
aF4.126263668248401e-05
aa(lp497
S'variat'
p498
aF4.126263668248401e-05
aa(lp499
S'raccoon'
p500
aF4.126263668248401e-05
aa(lp501
S'giggl'
p502
aF8.252527336496802e-05
aa(lp503
S'acerb'
p504
aF4.126263668248401e-05
aa(lp505
S'da'
p506
aF4.126263668248401e-05
aa(lp507
S'seduct'
p508
aF0.00012378791004745204
aa(lp509
S'rediscov'
p510
aF4.126263668248401e-05
aa(lp511
S'telemarket'
p512
aF4.126263668248401e-05
aa(lp513
S'cone'
p514
aF4.126263668248401e-05
aa(lp515
S'con'
p516
aF0.00012378791004745204
aa(lp517
S'lifetim'
p518
aF0.00012378791004745204
aa(lp519
S'royal'
p520
aF4.126263668248401e-05
aa(lp521
S'e.t'
p522
aF4.126263668248401e-05
aa(lp523
S'cost'
p524
aF8.252527336496802e-05
aa(lp525
S'grenad'
p526
aF4.126263668248401e-05
aa(lp527
S'abbrevi'
p528
aF4.126263668248401e-05
aa(lp529
S'dysfunct'
p530
aF0.00016505054672993604
aa(lp531
S'fervent'
p532
aF4.126263668248401e-05
aa(lp533
S'beckett'
p534
aF4.126263668248401e-05
aa(lp535
S'sympath'
p536
aF4.126263668248401e-05
aa(lp537
S'croak'
p538
aF4.126263668248401e-05
aa(lp539
S'venezuelan'
p540
aF4.126263668248401e-05
aa(lp541
S'explod'
p542
aF4.126263668248401e-05
aa(lp543
S'houseboat'
p544
aF4.126263668248401e-05
aa(lp545
S'jumpsuit'
p546
aF4.126263668248401e-05
aa(lp547
S'overshadow'
p548
aF4.126263668248401e-05
aa(lp549
S'cox'
p550
aF4.126263668248401e-05
aa(lp551
S'miik'
p552
aF4.126263668248401e-05
aa(lp553
S'wane'
p554
aF4.126263668248401e-05
aa(lp555
S'unfathom'
p556
aF4.126263668248401e-05
aa(lp557
S'vice'
p558
aF8.252527336496802e-05
aa(lp559
S'seldahl'
p560
aF4.126263668248401e-05
aa(lp561
S'highway'
p562
aF4.126263668248401e-05
aa(lp563
S'ho-hum'
p564
aF4.126263668248401e-05
aa(lp565
S'nadir'
p566
aF4.126263668248401e-05
aa(lp567
S'center'
p568
aF0.00016505054672993604
aa(lp569
S'pictur'
p570
aF0.0009490406436971322
aa(lp571
S'unexcept'
p572
aF4.126263668248401e-05
aa(lp573
S'inspir'
p574
aF0.0004538890035073241
aa(lp575
S'inspir'
p576
aF0.0004538890035073241
aa(lp577
S'interpret'
p578
aF8.252527336496802e-05
aa(lp579
S'inspir'
p580
aF0.0004538890035073241
aa(lp581
S'theron'
p582
aF4.126263668248401e-05
aa(lp583
S'dollar'
p584
aF4.126263668248401e-05
aa(lp585
S'homag'
p586
aF0.00016505054672993604
aa(lp587
S'intermitt'
p588
aF8.252527336496802e-05
aa(lp589
S'investig'
p590
aF8.252527336496802e-05
aa(lp591
S'suaviti'
p592
aF4.126263668248401e-05
aa(lp593
S'virtu'
p594
aF8.252527336496802e-05
aa(lp595
S'highway'
p596
aF4.126263668248401e-05
aa(lp597
S'posit'
p598
aF0.00016505054672993604
aa(lp599
S'curmudgeonli'
p600
aF4.126263668248401e-05
aa(lp601
S'super-wealthi'
p602
aF4.126263668248401e-05
aa(lp603
S'justifi'
p604
aF0.00016505054672993604
aa(lp605
S'surviv'
p606
aF0.00016505054672993604
aa(lp607
S'punctuat'
p608
aF8.252527336496802e-05
aa(lp609
S'relationship'
p610
aF0.0003713637301423561
aa(lp611
S'invit'
p612
aF8.252527336496802e-05
aa(lp613
S'surviv'
p614
aF0.00016505054672993604
aa(lp615
S'neuros'
p616
aF4.126263668248401e-05
aa(lp617
S'cadenc'
p618
aF4.126263668248401e-05
aa(lp619
S'reign'
p620
aF0.00012378791004745204
aa(lp621
S'ouija'
p622
aF4.126263668248401e-05
aa(lp623
S'risk'
p624
aF8.252527336496802e-05
aa(lp625
S'riski'
p626
aF4.126263668248401e-05
aa(lp627
S'distinct'
p628
aF0.00012378791004745204
aa(lp629
S'nuanc'
p630
aF0.00020631318341242006
aa(lp631
S'nuanc'
p632
aF0.00020631318341242006
aa(lp633
S'moustach'
p634
aF4.126263668248401e-05
aa(lp635
S'cross'
p636
aF0.0002475758200949041
aa(lp637
S'careen'
p638
aF8.252527336496802e-05
aa(lp639
S'child-rear'
p640
aF4.126263668248401e-05
aa(lp641
S'out-shock'
p642
aF4.126263668248401e-05
aa(lp643
S'teendom'
p644
aF4.126263668248401e-05
aa(lp645
S'special-effects-laden'
p646
aF4.126263668248401e-05
aa(lp647
S'magazin'
p648
aF4.126263668248401e-05
aa(lp649
S'thandi'
p650
aF4.126263668248401e-05
aa(lp651
S'labor'
p652
aF0.00012378791004745204
aa(lp653
S'anti-human'
p654
aF4.126263668248401e-05
aa(lp655
S'auteil'
p656
aF4.126263668248401e-05
aa(lp657
S'spar'
p658
aF4.126263668248401e-05
aa(lp659
S'shadow'
p660
aF0.00012378791004745204
aa(lp661
S'85-minut'
p662
aF4.126263668248401e-05
aa(lp663
S'aristocrat'
p664
aF4.126263668248401e-05
aa(lp665
S'domin'
p666
aF0.0002475758200949041
aa(lp667
S'not-so-hot'
p668
aF4.126263668248401e-05
aa(lp669
S'domin'
p670
aF0.0002475758200949041
aa(lp671
S'classi'
p672
aF8.252527336496802e-05
aa(lp673
S'worship'
p674
aF4.126263668248401e-05
aa(lp675
S'payoff'
p676
aF0.00016505054672993604
aa(lp677
S'veloc'
p678
aF8.252527336496802e-05
aa(lp679
S'sendak'
p680
aF4.126263668248401e-05
aa(lp681
S'conundrum'
p682
aF4.126263668248401e-05
aa(lp683
S'innocu'
p684
aF0.00012378791004745204
aa(lp685
S'hell'
p686
aF0.0002475758200949041
aa(lp687
S'lament'
p688
aF4.126263668248401e-05
aa(lp689
S'seduct'
p690
aF0.00012378791004745204
aa(lp691
S'sepia-tint'
p692
aF4.126263668248401e-05
aa(lp693
S'interpret'
p694
aF8.252527336496802e-05
aa(lp695
S'trajectori'
p696
aF4.126263668248401e-05
aa(lp697
S'implaus'
p698
aF8.252527336496802e-05
aa(lp699
S'stock'
p700
aF0.00012378791004745204
aa(lp701
S'bloodi'
p702
aF8.252527336496802e-05
aa(lp703
S'bird'
p704
aF4.126263668248401e-05
aa(lp705
S'amaro'
p706
aF4.126263668248401e-05
aa(lp707
S'domin'
p708
aF0.0002475758200949041
aa(lp709
S'polic'
p710
aF8.252527336496802e-05
aa(lp711
S'polici'
p712
aF8.252527336496802e-05
aa(lp713
S'message-movi'
p714
aF4.126263668248401e-05
aa(lp715
S'one-hour'
p716
aF4.126263668248401e-05
aa(lp717
S'michel'
p718
aF0.00012378791004745204
aa(lp719
S'knock-off'
p720
aF4.126263668248401e-05
aa(lp721
S'picnic'
p722
aF4.126263668248401e-05
aa(lp723
S'view'
p724
aF0.0003713637301423561
aa(lp725
S'vie'
p726
aF4.126263668248401e-05
aa(lp727
S'sinis'
p728
aF4.126263668248401e-05
aa(lp729
S'paymer'
p730
aF4.126263668248401e-05
aa(lp731
S'jump'
p732
aF8.252527336496802e-05
aa(lp733
S'glimps'
p734
aF0.00016505054672993604
aa(lp735
S'deeper'
p736
aF0.00016505054672993604
aa(lp737
S'disori'
p738
aF4.126263668248401e-05
aa(lp739
S'computer-gener'
p740
aF8.252527336496802e-05
aa(lp741
S'tast'
p742
aF0.0002475758200949041
aa(lp743
S'crimen'
p744
aF4.126263668248401e-05
aa(lp745
S'wobbl'
p746
aF4.126263668248401e-05
aa(lp747
S'well-mean'
p748
aF0.0002475758200949041
aa(lp749
S'chew'
p750
aF8.252527336496802e-05
aa(lp751
S'unimpress'
p752
aF8.252527336496802e-05
aa(lp753
S'juxtaposit'
p754
aF4.126263668248401e-05
aa(lp755
S'pokepi'
p756
aF4.126263668248401e-05
aa(lp757
S'indulg'
p758
aF0.00012378791004745204
aa(lp759
S'cyber'
p760
aF4.126263668248401e-05
aa(lp761
S'mar'
p762
aF0.00016505054672993604
aa(lp763
S'assess'
p764
aF4.126263668248401e-05
aa(lp765
S'sychowski'
p766
aF4.126263668248401e-05
aa(lp767
S'saigon'
p768
aF4.126263668248401e-05
aa(lp769
S'term'
p770
aF0.0002475758200949041
aa(lp771
S'negoti'
p772
aF4.126263668248401e-05
aa(lp773
S'accompani'
p774
aF8.252527336496802e-05
aa(lp775
S'seesaw'
p776
aF4.126263668248401e-05
aa(lp777
S'date'
p778
aF0.0002888384567773881
aa(lp779
S'iron'
p780
aF0.00012378791004745204
aa(lp781
S'neglect'
p782
aF8.252527336496802e-05
aa(lp783
S'dark'
p784
aF0.0005364142768722922
aa(lp785
S'freudian'
p786
aF4.126263668248401e-05
aa(lp787
S'dass'
p788
aF4.126263668248401e-05
aa(lp789
S'ferret'
p790
aF4.126263668248401e-05
aa(lp791
S'bollywood'
p792
aF4.126263668248401e-05
aa(lp793
S'off-kilt'
p794
aF4.126263668248401e-05
aa(lp795
S'chekhov'
p796
aF8.252527336496802e-05
aa(lp797
S'dani'
p798
aF8.252527336496802e-05
aa(lp799
S'h.g.'
p800
aF0.00016505054672993604
aa(lp801
S'foxworthi'
p802
aF4.126263668248401e-05
aa(lp803
S'fervid'
p804
aF4.126263668248401e-05
aa(lp805
S'revolut'
p806
aF0.00016505054672993604
aa(lp807
S'tiniest'
p808
aF4.126263668248401e-05
aa(lp809
S'schmidt'
p810
aF8.252527336496802e-05
aa(lp811
S'precis'
p812
aF0.00016505054672993604
aa(lp813
S'envelop'
p814
aF4.126263668248401e-05
aa(lp815
S'envelop'
p816
aF4.126263668248401e-05
aa(lp817
S'unansw'
p818
aF4.126263668248401e-05
aa(lp819
S'name'
p820
aF0.00020631318341242006
aa(lp821
S'terror'
p822
aF0.00016505054672993604
aa(lp823
S'innoc'
p824
aF0.00012378791004745204
aa(lp825
S'cycl'
p826
aF8.252527336496802e-05
aa(lp827
S'goodfella'
p828
aF8.252527336496802e-05
aa(lp829
S'gay'
p830
aF0.00020631318341242006
aa(lp831
S'willing'
p832
aF4.126263668248401e-05
aa(lp833
S'moment'
p834
aF0.0010728285537445843
aa(lp835
S'manhattan'
p836
aF0.00012378791004745204
aa(lp837
S'modestli'
p838
aF8.252527336496802e-05
aa(lp839
S'pug'
p840
aF4.126263668248401e-05
aa(lp841
S'gang'
p842
aF0.00012378791004745204
aa(lp843
S'dictat'
p844
aF4.126263668248401e-05
aa(lp845
S'lili'
p846
aF4.126263668248401e-05
aa(lp847
S'dirty-jok'
p848
aF4.126263668248401e-05
aa(lp849
S'engin'
p850
aF4.126263668248401e-05
aa(lp851
S'gag'
p852
aF0.0004951516401898082
aa(lp853
S'underdog'
p854
aF8.252527336496802e-05
aa(lp855
S'gait'
p856
aF4.126263668248401e-05
aa(lp857
S'list'
p858
aF8.252527336496802e-05
aa(lp859
S'correct'
p860
aF0.00012378791004745204
aa(lp861
S'inertia'
p862
aF4.126263668248401e-05
aa(lp863
S'cage'
p864
aF8.252527336496802e-05
aa(lp865
S'surround'
p866
aF0.00012378791004745204
aa(lp867
S'sharper'
p868
aF4.126263668248401e-05
aa(lp869
S'feardotcom'
p870
aF0.00012378791004745204
aa(lp871
S'produc'
p872
aF0.0002475758200949041
aa(lp873
S'homilet'
p874
aF4.126263668248401e-05
aa(lp875
S'family-friendli'
p876
aF4.126263668248401e-05
aa(lp877
S'soften'
p878
aF4.126263668248401e-05
aa(lp879
S'suggest'
p880
aF0.00016505054672993604
aa(lp881
S'shop'
p882
aF4.126263668248401e-05
aa(lp883
S'reunion'
p884
aF0.00012378791004745204
aa(lp885
S'happi'
p886
aF0.0002475758200949041
aa(lp887
S'phone'
p888
aF0.00012378791004745204
aa(lp889
S'draw'
p890
aF0.00016505054672993604
aa(lp891
S'tepid'
p892
aF4.126263668248401e-05
aa(lp893
S'uncoordin'
p894
aF4.126263668248401e-05
aa(lp895
S'ultra-viol'
p896
aF4.126263668248401e-05
aa(lp897
S'cost'
p898
aF8.252527336496802e-05
aa(lp899
S'indian'
p900
aF0.00012378791004745204
aa(lp901
S'cari'
p902
aF4.126263668248401e-05
aa(lp903
S'ring'
p904
aF0.00016505054672993604
aa(lp905
S'gaudi'
p906
aF4.126263668248401e-05
aa(lp907
S'eastern'
p908
aF4.126263668248401e-05
aa(lp909
S'porthol'
p910
aF4.126263668248401e-05
aa(lp911
S'rigid'
p912
aF4.126263668248401e-05
aa(lp913
S'inert'
p914
aF8.252527336496802e-05
aa(lp915
S'enemi'
p916
aF8.252527336496802e-05
aa(lp917
S'warn'
p918
aF0.00012378791004745204
aa(lp919
S'dare'
p920
aF0.00020631318341242006
aa(lp921
S'tuba-play'
p922
aF4.126263668248401e-05
aa(lp923
S'ballet'
p924
aF4.126263668248401e-05
aa(lp925
S'synthet'
p926
aF4.126263668248401e-05
aa(lp927
S'insomnia'
p928
aF8.252527336496802e-05
aa(lp929
S'breath'
p930
aF0.00012378791004745204
aa(lp931
S'heretofor'
p932
aF4.126263668248401e-05
aa(lp933
S'guitar'
p934
aF4.126263668248401e-05
aa(lp935
S'b-movi'
p936
aF0.00012378791004745204
aa(lp937
S'homag'
p938
aF0.00016505054672993604
aa(lp939
S'stutter'
p940
aF4.126263668248401e-05
aa(lp941
S'jone'
p942
aF0.00016505054672993604
aa(lp943
S'unremark'
p944
aF8.252527336496802e-05
aa(lp945
S'machin'
p946
aF0.0002475758200949041
aa(lp947
S'kalesniko'
p948
aF4.126263668248401e-05
aa(lp949
S'bartlebi'
p950
aF0.00012378791004745204
aa(lp951
S'nightmarish'
p952
aF4.126263668248401e-05
aa(lp953
S'stagnat'
p954
aF4.126263668248401e-05
aa(lp955
S'indel'
p956
aF4.126263668248401e-05
aa(lp957
S'veri'
p958
aF0.0014854549205694245
aa(lp959
S'kok'
p960
aF4.126263668248401e-05
aa(lp961
S'meatbal'
p962
aF4.126263668248401e-05
aa(lp963
S'norm'
p964
aF4.126263668248401e-05
aa(lp965
S'quibbl'
p966
aF4.126263668248401e-05
aa(lp967
S'vent'
p968
aF4.126263668248401e-05
aa(lp969
S'mullan'
p970
aF4.126263668248401e-05
aa(lp971
S'domino'
p972
aF4.126263668248401e-05
aa(lp973
S'tast'
p974
aF0.0002475758200949041
aa(lp975
S'good-look'
p976
aF8.252527336496802e-05
aa(lp977
S'sword-and-sorceri'
p978
aF4.126263668248401e-05
aa(lp979
S'feardotcom'
p980
aF0.00012378791004745204
aa(lp981
S'museum'
p982
aF4.126263668248401e-05
aa(lp983
S'moment'
p984
aF0.0010728285537445843
aa(lp985
S'protract'
p986
aF4.126263668248401e-05
aa(lp987
S'count'
p988
aF0.00016505054672993604
aa(lp989
S'gilliam'
p990
aF4.126263668248401e-05
aa(lp991
S'kev'
p992
aF4.126263668248401e-05
aa(lp993
S'whirl'
p994
aF8.252527336496802e-05
aa(lp995
S'beard'
p996
aF4.126263668248401e-05
aa(lp997
S'cute'
p998
aF0.0002475758200949041
aa(lp999
S'drawl'
p1000
aF4.126263668248401e-05
aa(lp1001
S'aris'
p1002
aF8.252527336496802e-05
aa(lp1003
S'wacki'
p1004
aF0.00016505054672993604
aa(lp1005
S'suppli'
p1006
aF8.252527336496802e-05
aa(lp1007
S'would-b'
p1008
aF8.252527336496802e-05
aa(lp1009
S'flop'
p1010
aF4.126263668248401e-05
aa(lp1011
S'anachronist'
p1012
aF8.252527336496802e-05
aa(lp1013
S'gayton'
p1014
aF4.126263668248401e-05
aa(lp1015
S'movie-star'
p1016
aF4.126263668248401e-05
aa(lp1017
S'channel'
p1018
aF0.00016505054672993604
aa(lp1019
S'academ'
p1020
aF4.126263668248401e-05
aa(lp1021
S'partli'
p1022
aF0.00012378791004745204
aa(lp1023
S'gang-memb'
p1024
aF4.126263668248401e-05
aa(lp1025
S'raptur'
p1026
aF4.126263668248401e-05
aa(lp1027
S'banter'
p1028
aF8.252527336496802e-05
aa(lp1029
S'fiction'
p1030
aF0.00016505054672993604
aa(lp1031
S'spousal'
p1032
aF4.126263668248401e-05
aa(lp1033
S'moviego'
p1034
aF0.00012378791004745204
aa(lp1035
S'feardotcom'
p1036
aF0.00012378791004745204
aa(lp1037
S'precis'
p1038
aF0.00016505054672993604
aa(lp1039
S'obvious'
p1040
aF0.00016505054672993604
aa(lp1041
S'appear'
p1042
aF0.0002888384567773881
aa(lp1043
S'cleti'
p1044
aF0.00016505054672993604
aa(lp1045
S'rework'
p1046
aF8.252527336496802e-05
aa(lp1047
S'dump'
p1048
aF4.126263668248401e-05
aa(lp1049
S'danger'
p1050
aF0.00016505054672993604
aa(lp1051
S'gentil'
p1052
aF4.126263668248401e-05
aa(lp1053
S'forgo'
p1054
aF4.126263668248401e-05
aa(lp1055
S'task'
p1056
aF4.126263668248401e-05
aa(lp1057
S'platinum-blond'
p1058
aF4.126263668248401e-05
aa(lp1059
S'neglect'
p1060
aF8.252527336496802e-05
aa(lp1061
S'correct'
p1062
aF0.00012378791004745204
aa(lp1063
S'lit'
p1064
aF4.126263668248401e-05
aa(lp1065
S'neurasthen'
p1066
aF4.126263668248401e-05
aa(lp1067
S'thesi'
p1068
aF8.252527336496802e-05
aa(lp1069
S'davi'
p1070
aF0.00012378791004745204
aa(lp1071
S'shepard'
p1072
aF4.126263668248401e-05
aa(lp1073
S'extra'
p1074
aF8.252527336496802e-05
aa(lp1075
S'greedi'
p1076
aF8.252527336496802e-05
aa(lp1077
S'close'
p1078
aF0.0003301010934598721
aa(lp1079
S'chaotic'
p1080
aF8.252527336496802e-05
aa(lp1081
S'mtv'
p1082
aF8.252527336496802e-05
aa(lp1083
S'ala'
p1084
aF4.126263668248401e-05
aa(lp1085
S'lo'
p1086
aF4.126263668248401e-05
aa(lp1087
S'forgett'
p1088
aF0.00012378791004745204
aa(lp1089
S'two-wrongs-make-a-right'
p1090
aF4.126263668248401e-05
aa(lp1091
S'fizzl'
p1092
aF4.126263668248401e-05
aa(lp1093
S'forgett'
p1094
aF0.00012378791004745204
aa(lp1095
S'miami'
p1096
aF8.252527336496802e-05
aa(lp1097
S'amid'
p1098
aF8.252527336496802e-05
aa(lp1099
S'accept'
p1100
aF0.00012378791004745204
aa(lp1101
S'breakdown'
p1102
aF8.252527336496802e-05
aa(lp1103
S'flirt'
p1104
aF4.126263668248401e-05
aa(lp1105
S'bett'
p1106
aF8.252527336496802e-05
aa(lp1107
S'abus'
p1108
aF8.252527336496802e-05
aa(lp1109
S'count'
p1110
aF0.00016505054672993604
aa(lp1111
S'shape'
p1112
aF8.252527336496802e-05
aa(lp1113
S'mad'
p1114
aF0.00012378791004745204
aa(lp1115
S'eccentr'
p1116
aF0.00012378791004745204
aa(lp1117
S'jean-claud'
p1118
aF4.126263668248401e-05
aa(lp1119
S'cell'
p1120
aF8.252527336496802e-05
aa(lp1121
S'soire'
p1122
aF4.126263668248401e-05
aa(lp1123
S'conflict'
p1124
aF0.0002475758200949041
aa(lp1125
S'deni'
p1126
aF0.00012378791004745204
aa(lp1127
S'schwentk'
p1128
aF4.126263668248401e-05
aa(lp1129
S'retel'
p1130
aF4.126263668248401e-05
aa(lp1131
S'japanes'
p1132
aF8.252527336496802e-05
aa(lp1133
S'peralta'
p1134
aF4.126263668248401e-05
aa(lp1135
S'assembl'
p1136
aF8.252527336496802e-05
aa(lp1137
S'snack'
p1138
aF4.126263668248401e-05
aa(lp1139
S'initi'
p1140
aF0.00012378791004745204
aa(lp1141
S'enemi'
p1142
aF8.252527336496802e-05
aa(lp1143
S'quick-cut'
p1144
aF4.126263668248401e-05
aa(lp1145
S'declar'
p1146
aF4.126263668248401e-05
aa(lp1147
S'finish'
p1148
aF0.0002475758200949041
aa(lp1149
S'yawn'
p1150
aF8.252527336496802e-05
aa(lp1151
S'updat'
p1152
aF8.252527336496802e-05
aa(lp1153
S'gourmet'
p1154
aF4.126263668248401e-05
aa(lp1155
S'alongsid'
p1156
aF4.126263668248401e-05
aa(lp1157
S'doubl'
p1158
aF0.00016505054672993604
aa(lp1159
S'especi'
p1160
aF0.0004538890035073241
aa(lp1161
S'updat'
p1162
aF8.252527336496802e-05
aa(lp1163
S'finish'
p1164
aF0.0002475758200949041
aa(lp1165
S'ad'
p1166
aF8.252527336496802e-05
aa(lp1167
S'riddl'
p1168
aF4.126263668248401e-05
aa(lp1169
S'northern'
p1170
aF4.126263668248401e-05
aa(lp1171
S'epp'
p1172
aF8.252527336496802e-05
aa(lp1173
S'addict'
p1174
aF4.126263668248401e-05
aa(lp1175
S'bean'
p1176
aF4.126263668248401e-05
aa(lp1177
S'recreat'
p1178
aF8.252527336496802e-05
aa(lp1179
S'trade'
p1180
aF0.00012378791004745204
aa(lp1181
S'bebe'
p1182
aF4.126263668248401e-05
aa(lp1183
S'fritter'
p1184
aF4.126263668248401e-05
aa(lp1185
S'eight'
p1186
aF0.00012378791004745204
aa(lp1187
S'dilut'
p1188
aF4.126263668248401e-05
aa(lp1189
S'valley-girl'
p1190
aF4.126263668248401e-05
aa(lp1191
S'drawback'
p1192
aF4.126263668248401e-05
aa(lp1193
S'mere'
p1194
aF0.0004126263668248401
aa(lp1195
S'superman'
p1196
aF4.126263668248401e-05
aa(lp1197
S'beginn'
p1198
aF4.126263668248401e-05
aa(lp1199
S'appear'
p1200
aF0.0002888384567773881
aa(lp1201
S'pose'
p1202
aF8.252527336496802e-05
aa(lp1203
S'lampoon'
p1204
aF8.252527336496802e-05
aa(lp1205
S'cartoon'
p1206
aF0.0003301010934598721
aa(lp1207
S'recreat'
p1208
aF8.252527336496802e-05
aa(lp1209
S'elfried'
p1210
aF4.126263668248401e-05
aa(lp1211
S'envelop'
p1212
aF4.126263668248401e-05
aa(lp1213
S'riddl'
p1214
aF4.126263668248401e-05
aa(lp1215
S'internet'
p1216
aF8.252527336496802e-05
aa(lp1217
S'riddl'
p1218
aF4.126263668248401e-05
aa(lp1219
S'testud'
p1220
aF4.126263668248401e-05
aa(lp1221
S'woo'
p1222
aF0.00012378791004745204
aa(lp1223
S'parsec'
p1224
aF4.126263668248401e-05
aa(lp1225
S'interpret'
p1226
aF8.252527336496802e-05
aa(lp1227
S'hang'
p1228
aF8.252527336496802e-05
aa(lp1229
S'shrug'
p1230
aF8.252527336496802e-05
aa(lp1231
S'admir'
p1232
aF0.0003301010934598721
aa(lp1233
S'antic'
p1234
aF8.252527336496802e-05
aa(lp1235
S'solv'
p1236
aF8.252527336496802e-05
aa(lp1237
S'conceal'
p1238
aF4.126263668248401e-05
aa(lp1239
S'atmospher'
p1240
aF0.0002475758200949041
aa(lp1241
S'porki'
p1242
aF4.126263668248401e-05
aa(lp1243
S'soaper'
p1244
aF8.252527336496802e-05
aa(lp1245
S'wearer'
p1246
aF4.126263668248401e-05
aa(lp1247
S'unprepar'
p1248
aF4.126263668248401e-05
aa(lp1249
S'calcul'
p1250
aF8.252527336496802e-05
aa(lp1251
S'stumblebum'
p1252
aF4.126263668248401e-05
aa(lp1253
S'deliveri'
p1254
aF0.00016505054672993604
aa(lp1255
S'front-load'
p1256
aF4.126263668248401e-05
aa(lp1257
S'gerardo'
p1258
aF4.126263668248401e-05
aa(lp1259
S'acquaint'
p1260
aF4.126263668248401e-05
aa(lp1261
S'gantz'
p1262
aF8.252527336496802e-05
aa(lp1263
S'appreci'
p1264
aF0.0002888384567773881
aa(lp1265
S'snazzi'
p1266
aF8.252527336496802e-05
aa(lp1267
S'chou-chou'
p1268
aF4.126263668248401e-05
aa(lp1269
S'looni'
p1270
aF4.126263668248401e-05
aa(lp1271
S'lumpish'
p1272
aF4.126263668248401e-05
aa(lp1273
S'loopi'
p1274
aF4.126263668248401e-05
aa(lp1275
S'crisi'
p1276
aF8.252527336496802e-05
aa(lp1277
S'stand-up'
p1278
aF0.00012378791004745204
aa(lp1279
S'djeinaba'
p1280
aF4.126263668248401e-05
aa(lp1281
S'fault'
p1282
aF0.00016505054672993604
aa(lp1283
S'unabl'
p1284
aF8.252527336496802e-05
aa(lp1285
S'abund'
p1286
aF4.126263668248401e-05
aa(lp1287
S'infinit'
p1288
aF8.252527336496802e-05
aa(lp1289
S'misdirect'
p1290
aF4.126263668248401e-05
aa(lp1291
S'unqualifi'
p1292
aF4.126263668248401e-05
aa(lp1293
S'too-extreme-for-tv'
p1294
aF4.126263668248401e-05
aa(lp1295
S'harmless'
p1296
aF0.00020631318341242006
aa(lp1297
S'half-bad'
p1298
aF4.126263668248401e-05
aa(lp1299
S'blood-drench'
p1300
aF4.126263668248401e-05
aa(lp1301
S'cell'
p1302
aF8.252527336496802e-05
aa(lp1303
S'south'
p1304
aF0.00012378791004745204
aa(lp1305
S'mere'
p1306
aF0.0004126263668248401
aa(lp1307
S'liter'
p1308
aF0.00020631318341242006
aa(lp1309
S'ten'
p1310
aF8.252527336496802e-05
aa(lp1311
S'tell'
p1312
aF0.0005364142768722922
aa(lp1313
S'otherworldli'
p1314
aF4.126263668248401e-05
aa(lp1315
S'greengrass'
p1316
aF4.126263668248401e-05
aa(lp1317
S'nakata'
p1318
aF4.126263668248401e-05
aa(lp1319
S'hippi'
p1320
aF8.252527336496802e-05
aa(lp1321
S'conflict'
p1322
aF0.0002475758200949041
aa(lp1323
S'cheese-lac'
p1324
aF4.126263668248401e-05
aa(lp1325
S'jone'
p1326
aF0.00016505054672993604
aa(lp1327
S'addict'
p1328
aF4.126263668248401e-05
aa(lp1329
S'ice'
p1330
aF0.0003301010934598721
aa(lp1331
S'frodo'
p1332
aF4.126263668248401e-05
aa(lp1333
S'vote'
p1334
aF8.252527336496802e-05
aa(lp1335
S'jonah'
p1336
aF0.00012378791004745204
aa(lp1337
S'admir'
p1338
aF0.0003301010934598721
aa(lp1339
S'irrelev'
p1340
aF4.126263668248401e-05
aa(lp1341
S'whatev'
p1342
aF0.00012378791004745204
aa(lp1343
S'exhibit'
p1344
aF4.126263668248401e-05
aa(lp1345
S'hitchcockian'
p1346
aF4.126263668248401e-05
aa(lp1347
S'threadbar'
p1348
aF8.252527336496802e-05
aa(lp1349
S'ballast'
p1350
aF4.126263668248401e-05
aa(lp1351
S'empathi'
p1352
aF0.00016505054672993604
aa(lp1353
S'overwrought'
p1354
aF0.00016505054672993604
aa(lp1355
S'rework'
p1356
aF8.252527336496802e-05
aa(lp1357
S'riff'
p1358
aF8.252527336496802e-05
aa(lp1359
S'stymi'
p1360
aF4.126263668248401e-05
aa(lp1361
S'suddenli'
p1362
aF8.252527336496802e-05
aa(lp1363
S'antic'
p1364
aF8.252527336496802e-05
aa(lp1365
S'degre'
p1366
aF0.00012378791004745204
aa(lp1367
S'run-on'
p1368
aF4.126263668248401e-05
aa(lp1369
S'telegraph'
p1370
aF4.126263668248401e-05
aa(lp1371
S'cafeteria'
p1372
aF4.126263668248401e-05
aa(lp1373
S'palav'
p1374
aF4.126263668248401e-05
aa(lp1375
S'potenti'
p1376
aF0.0003301010934598721
aa(lp1377
S'smartest'
p1378
aF4.126263668248401e-05
aa(lp1379
S'blunder'
p1380
aF4.126263668248401e-05
aa(lp1381
S'gang'
p1382
aF0.00012378791004745204
aa(lp1383
S'endors'
p1384
aF4.126263668248401e-05
aa(lp1385
S'indecipher'
p1386
aF4.126263668248401e-05
aa(lp1387
S'dalrympl'
p1388
aF4.126263668248401e-05
aa(lp1389
S'cracker'
p1390
aF4.126263668248401e-05
aa(lp1391
S'ape'
p1392
aF8.252527336496802e-05
aa(lp1393
S'question'
p1394
aF0.0003301010934598721
aa(lp1395
S'passabl'
p1396
aF0.00016505054672993604
aa(lp1397
S'warm-blood'
p1398
aF4.126263668248401e-05
aa(lp1399
S'passabl'
p1400
aF0.00016505054672993604
aa(lp1401
S'deep-six'
p1402
aF4.126263668248401e-05
aa(lp1403
S'comment'
p1404
aF8.252527336496802e-05
aa(lp1405
S'psychodrama'
p1406
aF4.126263668248401e-05
aa(lp1407
S'deja'
p1408
aF8.252527336496802e-05
aa(lp1409
S'agoni'
p1410
aF4.126263668248401e-05
aa(lp1411
S'greatest-hit'
p1412
aF4.126263668248401e-05
aa(lp1413
S'inner-c'
p1414
aF8.252527336496802e-05
aa(lp1415
S'bruin'
p1416
aF4.126263668248401e-05
aa(lp1417
S'cadenc'
p1418
aF4.126263668248401e-05
aa(lp1419
S'ohling'
p1420
aF4.126263668248401e-05
aa(lp1421
S'tomcat'
p1422
aF4.126263668248401e-05
aa(lp1423
S'arni'
p1424
aF8.252527336496802e-05
aa(lp1425
S'nouvel'
p1426
aF4.126263668248401e-05
aa(lp1427
S'gothic'
p1428
aF4.126263668248401e-05
aa(lp1429
S'address'
p1430
aF8.252527336496802e-05
aa(lp1431
S'jonz'
p1432
aF4.126263668248401e-05
aa(lp1433
S'poor-m'
p1434
aF4.126263668248401e-05
aa(lp1435
S'physiqu'
p1436
aF4.126263668248401e-05
aa(lp1437
S'object'
p1438
aF0.00012378791004745204
aa(lp1439
S'term'
p1440
aF0.0002475758200949041
aa(lp1441
S'7th-centuri'
p1442
aF4.126263668248401e-05
aa(lp1443
S'wise-crack'
p1444
aF4.126263668248401e-05
aa(lp1445
S'can'
p1446
aF0.0021869197441716525
aa(lp1447
S'shoot-out'
p1448
aF4.126263668248401e-05
aa(lp1449
S'hate'
p1450
aF0.0002475758200949041
aa(lp1451
S'bullet'
p1452
aF8.252527336496802e-05
aa(lp1453
S'thumpingli'
p1454
aF4.126263668248401e-05
aa(lp1455
S'latent'
p1456
aF4.126263668248401e-05
aa(lp1457
S'main'
p1458
aF0.00012378791004745204
aa(lp1459
S'crime-land'
p1460
aF4.126263668248401e-05
aa(lp1461
S'ten'
p1462
aF8.252527336496802e-05
aa(lp1463
S'bibi'
p1464
aF4.126263668248401e-05
aa(lp1465
S'triumphant'
p1466
aF8.252527336496802e-05
aa(lp1467
S'tenet'
p1468
aF4.126263668248401e-05
aa(lp1469
S'fourth'
p1470
aF8.252527336496802e-05
aa(lp1471
S'liter'
p1472
aF0.00020631318341242006
aa(lp1473
S'one-sid'
p1474
aF4.126263668248401e-05
aa(lp1475
S'scale'
p1476
aF4.126263668248401e-05
aa(lp1477
S'mean-spirit'
p1478
aF8.252527336496802e-05
aa(lp1479
S'anxiou'
p1480
aF4.126263668248401e-05
aa(lp1481
S'tack'
p1482
aF4.126263668248401e-05
aa(lp1483
S'origin'
p1484
aF0.0008252527336496802
aa(lp1485
S'statham'
p1486
aF4.126263668248401e-05
aa(lp1487
S'sia'
p1488
aF4.126263668248401e-05
aa(lp1489
S'scarf'
p1490
aF4.126263668248401e-05
aa(lp1491
S'hothous'
p1492
aF4.126263668248401e-05
aa(lp1493
S'reign'
p1494
aF0.00012378791004745204
aa(lp1495
S'valley'
p1496
aF4.126263668248401e-05
aa(lp1497
S'silenc'
p1498
aF0.00012378791004745204
aa(lp1499
S'lynch'
p1500
aF8.252527336496802e-05
aa(lp1501
S'serious-mind'
p1502
aF4.126263668248401e-05
aa(lp1503
S'bloodi'
p1504
aF8.252527336496802e-05
aa(lp1505
S'rediscov'
p1506
aF4.126263668248401e-05
aa(lp1507
S'parodi'
p1508
aF0.00012378791004745204
aa(lp1509
S'mar'
p1510
aF0.00016505054672993604
aa(lp1511
S'labour'
p1512
aF4.126263668248401e-05
aa(lp1513
S'ordinari'
p1514
aF8.252527336496802e-05
aa(lp1515
S'norrington-direct'
p1516
aF4.126263668248401e-05
aa(lp1517
S'prove'
p1518
aF0.0003713637301423561
aa(lp1519
S'two-drink-minimum'
p1520
aF4.126263668248401e-05
aa(lp1521
S'prove'
p1522
aF0.0003713637301423561
aa(lp1523
S'anticip'
p1524
aF8.252527336496802e-05
aa(lp1525
S'fit'
p1526
aF0.0002475758200949041
aa(lp1527
S'screw'
p1528
aF4.126263668248401e-05
aa(lp1529
S'five'
p1530
aF0.00016505054672993604
aa(lp1531
S'ring'
p1532
aF0.00016505054672993604
aa(lp1533
S'tay'
p1534
aF4.126263668248401e-05
aa(lp1535
S'bewild'
p1536
aF8.252527336496802e-05
aa(lp1537
S'innuendo'
p1538
aF4.126263668248401e-05
aa(lp1539
S'half-sleep'
p1540
aF4.126263668248401e-05
aa(lp1541
S'hitman'
p1542
aF4.126263668248401e-05
aa(lp1543
S'issu'
p1544
aF0.0002475758200949041
aa(lp1545
S'forward'
p1546
aF4.126263668248401e-05
aa(lp1547
S'whirl'
p1548
aF8.252527336496802e-05
aa(lp1549
S'boilerpl'
p1550
aF4.126263668248401e-05
aa(lp1551
S'scrawl'
p1552
aF4.126263668248401e-05
aa(lp1553
S'inner'
p1554
aF0.00012378791004745204
aa(lp1555
S'coffe'
p1556
aF8.252527336496802e-05
aa(lp1557
S'jelinek'
p1558
aF4.126263668248401e-05
aa(lp1559
S'red'
p1560
aF0.00016505054672993604
aa(lp1561
S'grain'
p1562
aF4.126263668248401e-05
aa(lp1563
S'shock'
p1564
aF0.0003713637301423561
aa(lp1565
S'decidedli'
p1566
aF8.252527336496802e-05
aa(lp1567
S'letter'
p1568
aF8.252527336496802e-05
aa(lp1569
S'heavili'
p1570
aF8.252527336496802e-05
aa(lp1571
S'schindler'
p1572
aF4.126263668248401e-05
aa(lp1573
S'admir'
p1574
aF0.0003301010934598721
aa(lp1575
S'recal'
p1576
aF8.252527336496802e-05
aa(lp1577
S'worship'
p1578
aF4.126263668248401e-05
aa(lp1579
S'line'
p1580
aF0.0003713637301423561
aa(lp1581
S'queen'
p1582
aF0.0002475758200949041
aa(lp1583
S'name'
p1584
aF0.00020631318341242006
aa(lp1585
S'entrepreneuri'
p1586
aF4.126263668248401e-05
aa(lp1587
S'disappointingli'
p1588
aF8.252527336496802e-05
aa(lp1589
S'tinseltown'
p1590
aF4.126263668248401e-05
aa(lp1591
S'emphas'
p1592
aF0.00012378791004745204
aa(lp1593
S'untidili'
p1594
aF4.126263668248401e-05
aa(lp1595
S'30-year'
p1596
aF4.126263668248401e-05
aa(lp1597
S'talk-heavi'
p1598
aF4.126263668248401e-05
aa(lp1599
S'demograph'
p1600
aF0.00016505054672993604
aa(lp1601
S'expos'
p1602
aF8.252527336496802e-05
aa(lp1603
S'assembl'
p1604
aF8.252527336496802e-05
aa(lp1605
S'difficult'
p1606
aF0.0004538890035073241
aa(lp1607
S'puppet'
p1608
aF8.252527336496802e-05
aa(lp1609
S'tell'
p1610
aF0.0005364142768722922
aa(lp1611
S'dispens'
p1612
aF4.126263668248401e-05
aa(lp1613
S'loyalti'
p1614
aF4.126263668248401e-05
aa(lp1615
S'million'
p1616
aF8.252527336496802e-05
aa(lp1617
S'furrow'
p1618
aF4.126263668248401e-05
aa(lp1619
S'phone'
p1620
aF0.00012378791004745204
aa(lp1621
S'post-tarantino'
p1622
aF4.126263668248401e-05
aa(lp1623
S'best-sel'
p1624
aF4.126263668248401e-05
aa(lp1625
S'machin'
p1626
aF0.0002475758200949041
aa(lp1627
S'togeth'
p1628
aF0.0004951516401898082
aa(lp1629
S'starter'
p1630
aF4.126263668248401e-05
aa(lp1631
S'one-not'
p1632
aF8.252527336496802e-05
aa(lp1633
S'sore'
p1634
aF4.126263668248401e-05
aa(lp1635
S'suffici'
p1636
aF4.126263668248401e-05
aa(lp1637
S'shackl'
p1638
aF4.126263668248401e-05
aa(lp1639
S'intent'
p1640
aF0.0003713637301423561
aa(lp1641
S'flee'
p1642
aF8.252527336496802e-05
aa(lp1643
S'porcelain'
p1644
aF4.126263668248401e-05
aa(lp1645
S'upset'
p1646
aF0.00012378791004745204
aa(lp1647
S'rom-com'
p1648
aF4.126263668248401e-05
aa(lp1649
S'mourn'
p1650
aF8.252527336496802e-05
aa(lp1651
S'tell'
p1652
aF0.0005364142768722922
aa(lp1653
S'respect'
p1654
aF0.0003301010934598721
aa(lp1655
S'tie-in'
p1656
aF4.126263668248401e-05
aa(lp1657
S'investig'
p1658
aF8.252527336496802e-05
aa(lp1659
S'flag'
p1660
aF4.126263668248401e-05
aa(lp1661
S'sunday'
p1662
aF8.252527336496802e-05
aa(lp1663
S'hjejl'
p1664
aF4.126263668248401e-05
aa(lp1665
S'peek'
p1666
aF0.00012378791004745204
aa(lp1667
S'stock'
p1668
aF0.00012378791004745204
aa(lp1669
S'date'
p1670
aF0.0002888384567773881
aa(lp1671
S'1960'
p1672
aF8.252527336496802e-05
aa(lp1673
S'happili'
p1674
aF4.126263668248401e-05
aa(lp1675
S'dark'
p1676
aF0.0005364142768722922
aa(lp1677
S'dare'
p1678
aF0.00020631318341242006
aa(lp1679
S'intelligentsia'
p1680
aF4.126263668248401e-05
aa(lp1681
S'chomp'
p1682
aF8.252527336496802e-05
aa(lp1683
S'shift'
p1684
aF8.252527336496802e-05
aa(lp1685
S'100-minut'
p1686
aF4.126263668248401e-05
aa(lp1687
S'nouvel'
p1688
aF4.126263668248401e-05
aa(lp1689
S'shini'
p1690
aF4.126263668248401e-05
aa(lp1691
S'campaign'
p1692
aF4.126263668248401e-05
aa(lp1693
S'snow'
p1694
aF8.252527336496802e-05
aa(lp1695
S'buzz-obsess'
p1696
aF4.126263668248401e-05
aa(lp1697
S'life-affirm'
p1698
aF0.00016505054672993604
aa(lp1699
S'cinephil'
p1700
aF4.126263668248401e-05
aa(lp1701
S'interperson'
p1702
aF4.126263668248401e-05
aa(lp1703
S'massacr'
p1704
aF4.126263668248401e-05
aa(lp1705
S'spars'
p1706
aF4.126263668248401e-05
aa(lp1707
S'disturb'
p1708
aF0.0002475758200949041
aa(lp1709
S'conform'
p1710
aF4.126263668248401e-05
aa(lp1711
S'wide-angl'
p1712
aF4.126263668248401e-05
aa(lp1713
S'revisit'
p1714
aF4.126263668248401e-05
aa(lp1715
S'wax'
p1716
aF4.126263668248401e-05
aa(lp1717
S'not-quite-dead'
p1718
aF4.126263668248401e-05
aa(lp1719
S'clear'
p1720
aF0.00016505054672993604
aa(lp1721
S'wreak'
p1722
aF8.252527336496802e-05
aa(lp1723
S'shave'
p1724
aF4.126263668248401e-05
aa(lp1725
S'dark'
p1726
aF0.0005364142768722922
aa(lp1727
S'hand-held'
p1728
aF4.126263668248401e-05
aa(lp1729
S'dampen'
p1730
aF4.126263668248401e-05
aa(lp1731
S'veggi'
p1732
aF4.126263668248401e-05
aa(lp1733
S'upsid'
p1734
aF4.126263668248401e-05
aa(lp1735
S'flop'
p1736
aF4.126263668248401e-05
aa(lp1737
S'innoc'
p1738
aF0.00012378791004745204
aa(lp1739
S'underdramat'
p1740
aF4.126263668248401e-05
aa(lp1741
S'buddi'
p1742
aF8.252527336496802e-05
aa(lp1743
S'fast-forward'
p1744
aF4.126263668248401e-05
aa(lp1745
S'stunt'
p1746
aF0.00016505054672993604
aa(lp1747
S'flag'
p1748
aF4.126263668248401e-05
aa(lp1749
S'gross'
p1750
aF8.252527336496802e-05
aa(lp1751
S'surround'
p1752
aF0.00012378791004745204
aa(lp1753
S'slather'
p1754
aF4.126263668248401e-05
aa(lp1755
S'cleaner'
p1756
aF4.126263668248401e-05
aa(lp1757
S'well-construct'
p1758
aF8.252527336496802e-05
aa(lp1759
S'beyond'
p1760
aF0.0002475758200949041
aa(lp1761
S'subdu'
p1762
aF4.126263668248401e-05
aa(lp1763
S'sprawl'
p1764
aF4.126263668248401e-05
aa(lp1765
S'hiv\\/aid'
p1766
aF4.126263668248401e-05
aa(lp1767
S'geriatr'
p1768
aF4.126263668248401e-05
aa(lp1769
S'silenc'
p1770
aF0.00012378791004745204
aa(lp1771
S're-assess'
p1772
aF4.126263668248401e-05
aa(lp1773
S'firebrand'
p1774
aF4.126263668248401e-05
aa(lp1775
S'errat'
p1776
aF8.252527336496802e-05
aa(lp1777
S'fault'
p1778
aF0.00016505054672993604
aa(lp1779
S'forward'
p1780
aF4.126263668248401e-05
aa(lp1781
S'appetit'
p1782
aF4.126263668248401e-05
aa(lp1783
S'remain'
p1784
aF0.0003301010934598721
aa(lp1785
S'playwright'
p1786
aF8.252527336496802e-05
aa(lp1787
S'veget'
p1788
aF4.126263668248401e-05
aa(lp1789
S'reel'
p1790
aF0.00012378791004745204
aa(lp1791
S'hannib'
p1792
aF8.252527336496802e-05
aa(lp1793
S'slobber'
p1794
aF4.126263668248401e-05
aa(lp1795
S'indulg'
p1796
aF0.00012378791004745204
aa(lp1797
S'will'
p1798
aF0.0023107076542191046
aa(lp1799
S'associ'
p1800
aF8.252527336496802e-05
aa(lp1801
S'memor'
p1802
aF0.0002475758200949041
aa(lp1803
S'clutch'
p1804
aF4.126263668248401e-05
aa(lp1805
S'clutch'
p1806
aF4.126263668248401e-05
aa(lp1807
S'rein'
p1808
aF4.126263668248401e-05
aa(lp1809
S'con'
p1810
aF0.00012378791004745204
aa(lp1811
S'servic'
p1812
aF0.0002475758200949041
aa(lp1813
S'varmint'
p1814
aF4.126263668248401e-05
aa(lp1815
S'conceal'
p1816
aF4.126263668248401e-05
aa(lp1817
S'arthous'
p1818
aF4.126263668248401e-05
aa(lp1819
S'blow'
p1820
aF0.00012378791004745204
aa(lp1821
S'stallon'
p1822
aF4.126263668248401e-05
aa(lp1823
S'broca'
p1824
aF4.126263668248401e-05
aa(lp1825
S'stanford'
p1826
aF4.126263668248401e-05
aa(lp1827
S'longev'
p1828
aF4.126263668248401e-05
aa(lp1829
S'jerki'
p1830
aF4.126263668248401e-05
aa(lp1831
S'iron'
p1832
aF0.00012378791004745204
aa(lp1833
S'mcfarlan'
p1834
aF4.126263668248401e-05
aa(lp1835
S'respect'
p1836
aF0.0003301010934598721
aa(lp1837
S'biz'
p1838
aF4.126263668248401e-05
aa(lp1839
S'bit'
p1840
aF0.0006602021869197441
aa(lp1841
S'messi'
p1842
aF8.252527336496802e-05
aa(lp1843
S'precis'
p1844
aF0.00016505054672993604
aa(lp1845
S'outshin'
p1846
aF4.126263668248401e-05
aa(lp1847
S'statement'
p1848
aF4.126263668248401e-05
aa(lp1849
S'bow'
p1850
aF4.126263668248401e-05
aa(lp1851
S'boy'
p1852
aF0.0004538890035073241
aa(lp1853
S'boat'
p1854
aF8.252527336496802e-05
aa(lp1855
S'unnatur'
p1856
aF4.126263668248401e-05
aa(lp1857
S'backyard'
p1858
aF8.252527336496802e-05
aa(lp1859
S'pander'
p1860
aF8.252527336496802e-05
aa(lp1861
S'hush'
p1862
aF4.126263668248401e-05
aa(lp1863
S'deni'
p1864
aF0.00012378791004745204
aa(lp1865
S'fish-out-of-wat'
p1866
aF4.126263668248401e-05
aa(lp1867
S'102-minut'
p1868
aF8.252527336496802e-05
aa(lp1869
S'close'
p1870
aF0.0003301010934598721
aa(lp1871
S'air-condit'
p1872
aF4.126263668248401e-05
aa(lp1873
S'angl'
p1874
aF4.126263668248401e-05
aa(lp1875
S'hous'
p1876
aF0.0002888384567773881
aa(lp1877
S'bet'
p1878
aF8.252527336496802e-05
aa(lp1879
S'vacuum'
p1880
aF4.126263668248401e-05
aa(lp1881
S'killer'
p1882
aF0.00020631318341242006
aa(lp1883
S'lizard'
p1884
aF4.126263668248401e-05
aa(lp1885
S'oddest'
p1886
aF4.126263668248401e-05
aa(lp1887
S'handgun'
p1888
aF4.126263668248401e-05
aa(lp1889
S'guy'
p1890
aF0.0005364142768722922
aa(lp1891
S'metal'
p1892
aF4.126263668248401e-05
aa(lp1893
S'econom'
p1894
aF0.00012378791004745204
aa(lp1895
S'neglect'
p1896
aF8.252527336496802e-05
aa(lp1897
S'lure'
p1898
aF4.126263668248401e-05
aa(lp1899
S'clau'
p1900
aF4.126263668248401e-05
aa(lp1901
S'econom'
p1902
aF0.00012378791004745204
aa(lp1903
S'obstacl'
p1904
aF0.00012378791004745204
aa(lp1905
S'borg'
p1906
aF4.126263668248401e-05
aa(lp1907
S'book'
p1908
aF0.0004951516401898082
aa(lp1909
S'outlin'
p1910
aF4.126263668248401e-05
aa(lp1911
S'cacoyanni'
p1912
aF4.126263668248401e-05
aa(lp1913
S'frown'
p1914
aF4.126263668248401e-05
aa(lp1915
S'lurk'
p1916
aF8.252527336496802e-05
aa(lp1917
S'connect'
p1918
aF0.0002475758200949041
aa(lp1919
S'stronger'
p1920
aF4.126263668248401e-05
aa(lp1921
S'pictur'
p1922
aF0.0009490406436971322
aa(lp1923
S'age-inspir'
p1924
aF4.126263668248401e-05
aa(lp1925
S'vampir'
p1926
aF0.00020631318341242006
aa(lp1927
S'blow'
p1928
aF0.00012378791004745204
aa(lp1929
S'explicit'
p1930
aF4.126263668248401e-05
aa(lp1931
S'expedi'
p1932
aF8.252527336496802e-05
aa(lp1933
S'blith'
p1934
aF4.126263668248401e-05
aa(lp1935
S'guei'
p1936
aF4.126263668248401e-05
aa(lp1937
S'dwell'
p1938
aF4.126263668248401e-05
aa(lp1939
S'disturb'
p1940
aF0.0002475758200949041
aa(lp1941
S'alabama'
p1942
aF8.252527336496802e-05
aa(lp1943
S'strictli'
p1944
aF0.00012378791004745204
aa(lp1945
S'curio'
p1946
aF4.126263668248401e-05
aa(lp1947
S'outwardli'
p1948
aF4.126263668248401e-05
aa(lp1949
S'appear'
p1950
aF0.0002888384567773881
aa(lp1951
S'pint-siz'
p1952
aF4.126263668248401e-05
aa(lp1953
S'myer'
p1954
aF0.00012378791004745204
aa(lp1955
S'crazi'
p1956
aF0.00020631318341242006
aa(lp1957
S'slyli'
p1958
aF4.126263668248401e-05
aa(lp1959
S'bruis'
p1960
aF4.126263668248401e-05
aa(lp1961
S'conflict'
p1962
aF0.0002475758200949041
aa(lp1963
S'tortuou'
p1964
aF4.126263668248401e-05
aa(lp1965
S'special-effect'
p1966
aF4.126263668248401e-05
aa(lp1967
S'choic'
p1968
aF0.00020631318341242006
aa(lp1969
S'rob'
p1970
aF0.00016505054672993604
aa(lp1971
S'lookin'
p1972
aF4.126263668248401e-05
aa(lp1973
S'frighten'
p1974
aF0.00012378791004745204
aa(lp1975
S'didact'
p1976
aF4.126263668248401e-05
aa(lp1977
S'racist'
p1978
aF4.126263668248401e-05
aa(lp1979
S'sincer'
p1980
aF0.0002475758200949041
aa(lp1981
S'racism'
p1982
aF4.126263668248401e-05
aa(lp1983
S'forth'
p1984
aF0.00012378791004745204
aa(lp1985
S'potenc'
p1986
aF8.252527336496802e-05
aa(lp1987
S'fort'
p1988
aF4.126263668248401e-05
aa(lp1989
S'arc'
p1990
aF4.126263668248401e-05
aa(lp1991
S'center'
p1992
aF0.00016505054672993604
aa(lp1993
S'owe'
p1994
aF0.00012378791004745204
aa(lp1995
S'transcript'
p1996
aF4.126263668248401e-05
aa(lp1997
S'inject'
p1998
aF4.126263668248401e-05
aa(lp1999
S'persnicketi'
p2000
aF4.126263668248401e-05
aa(lp2001
S'folk'
p2002
aF0.00016505054672993604
aa(lp2003
S'banderas-luci'
p2004
aF4.126263668248401e-05
aa(lp2005
S'shore'
p2006
aF4.126263668248401e-05
aa(lp2007
S'sexploit'
p2008
aF4.126263668248401e-05
aa(lp2009
S'code'
p2010
aF0.00012378791004745204
aa(lp2011
S'link'
p2012
aF8.252527336496802e-05
aa(lp2013
S'slather'
p2014
aF4.126263668248401e-05
aa(lp2015
S'layer'
p2016
aF0.00016505054672993604
aa(lp2017
S'bubbl'
p2018
aF4.126263668248401e-05
aa(lp2019
S'sugari'
p2020
aF4.126263668248401e-05
aa(lp2021
S'spook-a-rama'
p2022
aF4.126263668248401e-05
aa(lp2023
S'haywir'
p2024
aF4.126263668248401e-05
aa(lp2025
S'schnitzler'
p2026
aF4.126263668248401e-05
aa(lp2027
S'countless'
p2028
aF8.252527336496802e-05
aa(lp2029
S'celibaci'
p2030
aF4.126263668248401e-05
aa(lp2031
S'basic'
p2032
aF0.0002888384567773881
aa(lp2033
S'substanc'
p2034
aF0.00016505054672993604
aa(lp2035
S'viabil'
p2036
aF4.126263668248401e-05
aa(lp2037
S'pepper'
p2038
aF4.126263668248401e-05
aa(lp2039
S'nastier'
p2040
aF4.126263668248401e-05
aa(lp2041
S'unsteadi'
p2042
aF4.126263668248401e-05
aa(lp2043
S'vector'
p2044
aF4.126263668248401e-05
aa(lp2045
S'revolut'
p2046
aF0.00016505054672993604
aa(lp2047
S'confluenc'
p2048
aF4.126263668248401e-05
aa(lp2049
S'ring'
p2050
aF0.00016505054672993604
aa(lp2051
S'disori'
p2052
aF4.126263668248401e-05
aa(lp2053
S'mile'
p2054
aF0.00012378791004745204
aa(lp2055
S'antidot'
p2056
aF4.126263668248401e-05
aa(lp2057
S'probabl'
p2058
aF0.0004126263668248401
aa(lp2059
S'mildli'
p2060
aF0.00020631318341242006
aa(lp2061
S'dysfunct'
p2062
aF0.00016505054672993604
aa(lp2063
S'quota'
p2064
aF4.126263668248401e-05
aa(lp2065
S'veer'
p2066
aF0.00012378791004745204
aa(lp2067
S'tack'
p2068
aF4.126263668248401e-05
aa(lp2069
S'terrifi'
p2070
aF8.252527336496802e-05
aa(lp2071
S'costum'
p2072
aF0.00012378791004745204
aa(lp2073
S'free'
p2074
aF0.00016505054672993604
aa(lp2075
S'lactat'
p2076
aF4.126263668248401e-05
aa(lp2077
S'aristocrat'
p2078
aF4.126263668248401e-05
aa(lp2079
S'maik'
p2080
aF4.126263668248401e-05
aa(lp2081
S'heist'
p2082
aF8.252527336496802e-05
aa(lp2083
S'collater'
p2084
aF8.252527336496802e-05
aa(lp2085
S'cute'
p2086
aF0.0002475758200949041
aa(lp2087
S'cut'
p2088
aF0.0003301010934598721
aa(lp2089
S'cuss'
p2090
aF4.126263668248401e-05
aa(lp2091
S'frankenstein'
p2092
aF4.126263668248401e-05
aa(lp2093
S'chronicl'
p2094
aF0.00012378791004745204
aa(lp2095
S'object'
p2096
aF0.00012378791004745204
aa(lp2097
S'cynic'
p2098
aF0.00016505054672993604
aa(lp2099
S'boy'
p2100
aF0.0004538890035073241
aa(lp2101
S'convers'
p2102
aF0.00016505054672993604
aa(lp2103
S'found'
p2104
aF0.0002888384567773881
aa(lp2105
S'rage'
p2106
aF8.252527336496802e-05
aa(lp2107
S'mask'
p2108
aF4.126263668248401e-05
aa(lp2109
S'temper'
p2110
aF4.126263668248401e-05
aa(lp2111
S'participatori'
p2112
aF4.126263668248401e-05
aa(lp2113
S'mettl'
p2114
aF4.126263668248401e-05
aa(lp2115
S'slaveri'
p2116
aF4.126263668248401e-05
aa(lp2117
S'kill'
p2118
aF0.00016505054672993604
aa(lp2119
S'mythmak'
p2120
aF4.126263668248401e-05
aa(lp2121
S'hous'
p2122
aF0.0002888384567773881
aa(lp2123
S'genteel'
p2124
aF4.126263668248401e-05
aa(lp2125
S'tabl'
p2126
aF8.252527336496802e-05
aa(lp2127
S'posit'
p2128
aF0.00016505054672993604
aa(lp2129
S'massacr'
p2130
aF4.126263668248401e-05
aa(lp2131
S'vice'
p2132
aF8.252527336496802e-05
aa(lp2133
S'whitak'
p2134
aF4.126263668248401e-05
aa(lp2135
S'posit'
p2136
aF0.00016505054672993604
aa(lp2137
S'parallel'
p2138
aF0.00016505054672993604
aa(lp2139
S'tune'
p2140
aF8.252527336496802e-05
aa(lp2141
S'overboard'
p2142
aF4.126263668248401e-05
aa(lp2143
S'mar'
p2144
aF0.00016505054672993604
aa(lp2145
S'list'
p2146
aF8.252527336496802e-05
aa(lp2147
S'open-fac'
p2148
aF4.126263668248401e-05
aa(lp2149
S'wave'
p2150
aF8.252527336496802e-05
aa(lp2151
S'introduc'
p2152
aF8.252527336496802e-05
aa(lp2153
S'payoff'
p2154
aF0.00016505054672993604
aa(lp2155
S'bros.'
p2156
aF8.252527336496802e-05
aa(lp2157
S'veri'
p2158
aF0.0014854549205694245
aa(lp2159
S'name'
p2160
aF0.00020631318341242006
aa(lp2161
S'name'
p2162
aF0.00020631318341242006
aa(lp2163
S'brendan'
p2164
aF8.252527336496802e-05
aa(lp2165
S'prissi'
p2166
aF4.126263668248401e-05
aa(lp2167
S'propheci'
p2168
aF4.126263668248401e-05
aa(lp2169
S'get'
p2170
aF0.0016092428306168764
aa(lp2171
S'cultist'
p2172
aF4.126263668248401e-05
aa(lp2173
S'distinctli'
p2174
aF8.252527336496802e-05
aa(lp2175
S'close'
p2176
aF0.0003301010934598721
aa(lp2177
S'moviego'
p2178
aF0.00012378791004745204
aa(lp2179
S'heart-breakingli'
p2180
aF4.126263668248401e-05
aa(lp2181
S'argument'
p2182
aF8.252527336496802e-05
aa(lp2183
S'loyal'
p2184
aF4.126263668248401e-05
aa(lp2185
S'20th-centuri'
p2186
aF4.126263668248401e-05
aa(lp2187
S'action-ori'
p2188
aF4.126263668248401e-05
aa(lp2189
S'fit'
p2190
aF0.0002475758200949041
aa(lp2191
S'sharpi'
p2192
aF4.126263668248401e-05
aa(lp2193
S'limerick'
p2194
aF4.126263668248401e-05
aa(lp2195
S'copyof'
p2196
aF4.126263668248401e-05
aa(lp2197
S'fit'
p2198
aF0.0002475758200949041
aa(lp2199
S'hyphen'
p2200
aF4.126263668248401e-05
aa(lp2201
S'lagaan'
p2202
aF4.126263668248401e-05
aa(lp2203
S'calcul'
p2204
aF8.252527336496802e-05
aa(lp2205
S'trek'
p2206
aF0.00012378791004745204
aa(lp2207
S'avoid'
p2208
aF0.00012378791004745204
aa(lp2209
S'truncheon'
p2210
aF4.126263668248401e-05
aa(lp2211
S'prison'
p2212
aF0.00012378791004745204
aa(lp2213
S'painter'
p2214
aF4.126263668248401e-05
aa(lp2215
S'seasid'
p2216
aF4.126263668248401e-05
aa(lp2217
S'preachi'
p2218
aF0.00012378791004745204
aa(lp2219
S'sympath'
p2220
aF4.126263668248401e-05
aa(lp2221
S'river'
p2222
aF4.126263668248401e-05
aa(lp2223
S'relationship'
p2224
aF0.0003713637301423561
aa(lp2225
S'crassli'
p2226
aF4.126263668248401e-05
aa(lp2227
S'yorker'
p2228
aF8.252527336496802e-05
aa(lp2229
S'exist'
p2230
aF0.0002475758200949041
aa(lp2231
S'legendari'
p2232
aF4.126263668248401e-05
aa(lp2233
S'goyer'
p2234
aF4.126263668248401e-05
aa(lp2235
S'learn'
p2236
aF0.00020631318341242006
aa(lp2237
S'mourn'
p2238
aF8.252527336496802e-05
aa(lp2239
S'tobey'
p2240
aF4.126263668248401e-05
aa(lp2241
S'goulash'
p2242
aF4.126263668248401e-05
aa(lp2243
S'seth'
p2244
aF4.126263668248401e-05
aa(lp2245
S'tenaci'
p2246
aF8.252527336496802e-05
aa(lp2247
S'quintessenti'
p2248
aF8.252527336496802e-05
aa(lp2249
S'think'
p2250
aF0.0008252527336496802
aa(lp2251
S'upload'
p2252
aF4.126263668248401e-05
aa(lp2253
S'taiwanes'
p2254
aF4.126263668248401e-05
aa(lp2255
S'fleet'
p2256
aF0.00012378791004745204
aa(lp2257
S'preposter'
p2258
aF0.00012378791004745204
aa(lp2259
S'throw'
p2260
aF0.00020631318341242006
aa(lp2261
S'near-miss'
p2262
aF4.126263668248401e-05
aa(lp2263
S'section'
p2264
aF4.126263668248401e-05
aa(lp2265
S'1971'
p2266
aF4.126263668248401e-05
aa(lp2267
S'giggl'
p2268
aF8.252527336496802e-05
aa(lp2269
S'1990'
p2270
aF4.126263668248401e-05
aa(lp2271
S'punctuat'
p2272
aF8.252527336496802e-05
aa(lp2273
S'dwell'
p2274
aF4.126263668248401e-05
aa(lp2275
S'analyz'
p2276
aF0.00016505054672993604
aa(lp2277
S'frank'
p2278
aF0.00016505054672993604
aa(lp2279
S'sentimentalist'
p2280
aF4.126263668248401e-05
aa(lp2281
S'connect'
p2282
aF0.0002475758200949041
aa(lp2283
S'buck'
p2284
aF8.252527336496802e-05
aa(lp2285
S'galor'
p2286
aF4.126263668248401e-05
aa(lp2287
S'conflict'
p2288
aF0.0002475758200949041
aa(lp2289
S'1915'
p2290
aF8.252527336496802e-05
aa(lp2291
S'community-therapi'
p2292
aF4.126263668248401e-05
aa(lp2293
S'hellish'
p2294
aF4.126263668248401e-05
aa(lp2295
S'kill'
p2296
aF0.00016505054672993604
aa(lp2297
S'two-hour'
p2298
aF8.252527336496802e-05
aa(lp2299
S'intent'
p2300
aF0.0003713637301423561
aa(lp2301
S'leak'
p2302
aF8.252527336496802e-05
aa(lp2303
S'shape'
p2304
aF8.252527336496802e-05
aa(lp2305
S'everyman'
p2306
aF4.126263668248401e-05
aa(lp2307
S'1958'
p2308
aF4.126263668248401e-05
aa(lp2309
S'1953'
p2310
aF4.126263668248401e-05
aa(lp2311
S'presum'
p2312
aF4.126263668248401e-05
aa(lp2313
S'benjamin'
p2314
aF8.252527336496802e-05
aa(lp2315
S'dystopia'
p2316
aF4.126263668248401e-05
aa(lp2317
S'cut'
p2318
aF0.0003301010934598721
aa(lp2319
S'basic'
p2320
aF0.0002888384567773881
aa(lp2321
S'monti'
p2322
aF8.252527336496802e-05
aa(lp2323
S'cynic'
p2324
aF0.00016505054672993604
aa(lp2325
S'boy'
p2326
aF0.0004538890035073241
aa(lp2327
S'fleetingli'
p2328
aF4.126263668248401e-05
aa(lp2329
S'ether'
p2330
aF8.252527336496802e-05
aa(lp2331
S'recal'
p2332
aF8.252527336496802e-05
aa(lp2333
S'warn'
p2334
aF0.00012378791004745204
aa(lp2335
S'low-lif'
p2336
aF4.126263668248401e-05
aa(lp2337
S'tell'
p2338
aF0.0005364142768722922
aa(lp2339
S'harvest'
p2340
aF4.126263668248401e-05
aa(lp2341
S'lampoon'
p2342
aF8.252527336496802e-05
aa(lp2343
S'streamlin'
p2344
aF4.126263668248401e-05
aa(lp2345
S'prey'
p2346
aF8.252527336496802e-05
aa(lp2347
S'minimum'
p2348
aF8.252527336496802e-05
aa(lp2349
S'unrepentantli'
p2350
aF4.126263668248401e-05
aa(lp2351
S'irk'
p2352
aF4.126263668248401e-05
aa(lp2353
S'prankster'
p2354
aF4.126263668248401e-05
aa(lp2355
S'soul-strip'
p2356
aF4.126263668248401e-05
aa(lp2357
S'gloomi'
p2358
aF4.126263668248401e-05
aa(lp2359
S'draw'
p2360
aF0.00016505054672993604
aa(lp2361
S'sex-in-the-c'
p2362
aF4.126263668248401e-05
aa(lp2363
S'been-ther'
p2364
aF4.126263668248401e-05
aa(lp2365
S'danger'
p2366
aF0.00016505054672993604
aa(lp2367
S'pro'
p2368
aF4.126263668248401e-05
aa(lp2369
S'connect'
p2370
aF0.0002475758200949041
aa(lp2371
S'batch'
p2372
aF4.126263668248401e-05
aa(lp2373
S'mad'
p2374
aF0.00012378791004745204
aa(lp2375
S'eccentr'
p2376
aF0.00012378791004745204
aa(lp2377
S'find'
p2378
aF0.0008252527336496802
aa(lp2379
S'dummi'
p2380
aF4.126263668248401e-05
aa(lp2381
S'kin'
p2382
aF4.126263668248401e-05
aa(lp2383
S'ring'
p2384
aF0.00016505054672993604
aa(lp2385
S'stanc'
p2386
aF4.126263668248401e-05
aa(lp2387
S'boat'
p2388
aF8.252527336496802e-05
aa(lp2389
S'stand'
p2390
aF0.0003301010934598721
aa(lp2391
S'comment'
p2392
aF8.252527336496802e-05
aa(lp2393
S'lamb'
p2394
aF8.252527336496802e-05
aa(lp2395
S'whip'
p2396
aF4.126263668248401e-05
aa(lp2397
S'singer'
p2398
aF8.252527336496802e-05
aa(lp2399
S'downtim'
p2400
aF4.126263668248401e-05
aa(lp2401
S'off-hand'
p2402
aF4.126263668248401e-05
aa(lp2403
S'melodrama'
p2404
aF0.0004126263668248401
aa(lp2405
S'skateboard'
p2406
aF0.00012378791004745204
aa(lp2407
S'pictur'
p2408
aF0.0009490406436971322
aa(lp2409
S'ineleg'
p2410
aF4.126263668248401e-05
aa(lp2411
S'infomerci'
p2412
aF8.252527336496802e-05
aa(lp2413
S'leagu'
p2414
aF8.252527336496802e-05
aa(lp2415
S'fault'
p2416
aF0.00016505054672993604
aa(lp2417
S'equival'
p2418
aF0.00016505054672993604
aa(lp2419
S'persever'
p2420
aF4.126263668248401e-05
aa(lp2421
S'showboat'
p2422
aF4.126263668248401e-05
aa(lp2423
S'shower'
p2424
aF8.252527336496802e-05
aa(lp2425
S'crank'
p2426
aF4.126263668248401e-05
aa(lp2427
S'distort'
p2428
aF4.126263668248401e-05
aa(lp2429
S'accept'
p2430
aF0.00012378791004745204
aa(lp2431
S'kerrigan'
p2432
aF4.126263668248401e-05
aa(lp2433
S'patrolman'
p2434
aF4.126263668248401e-05
aa(lp2435
S'hate'
p2436
aF0.0002475758200949041
aa(lp2437
S'hate'
p2438
aF0.0002475758200949041
aa(lp2439
S'detriment'
p2440
aF4.126263668248401e-05
aa(lp2441
S'latch'
p2442
aF4.126263668248401e-05
aa(lp2443
S'throw'
p2444
aF0.00020631318341242006
aa(lp2445
S'hook'
p2446
aF8.252527336496802e-05
aa(lp2447
S'wave'
p2448
aF8.252527336496802e-05
aa(lp2449
S'warn'
p2450
aF0.00012378791004745204
aa(lp2451
S'sexist'
p2452
aF4.126263668248401e-05
aa(lp2453
S'wari'
p2454
aF4.126263668248401e-05
aa(lp2455
S'bone'
p2456
aF8.252527336496802e-05
aa(lp2457
S'mistak'
p2458
aF0.00012378791004745204
aa(lp2459
S"'60"
p2460
aF0.00012378791004745204
aa(lp2461
S'book'
p2462
aF0.0004951516401898082
aa(lp2463
S'boom'
p2464
aF8.252527336496802e-05
aa(lp2465
S'object'
p2466
aF0.00012378791004745204
aa(lp2467
S'bitter'
p2468
aF0.00012378791004745204
aa(lp2469
S'author'
p2470
aF8.252527336496802e-05
aa(lp2471
S'morn'
p2472
aF8.252527336496802e-05
aa(lp2473
S'gryffindor'
p2474
aF4.126263668248401e-05
aa(lp2475
S'hat'
p2476
aF8.252527336496802e-05
aa(lp2477
S'enliven'
p2478
aF4.126263668248401e-05
aa(lp2479
S'reenact'
p2480
aF4.126263668248401e-05
aa(lp2481
S'newsreel'
p2482
aF4.126263668248401e-05
aa(lp2483
S'chronicl'
p2484
aF0.00012378791004745204
aa(lp2485
S'stubborn'
p2486
aF4.126263668248401e-05
aa(lp2487
S'nonchalleng'
p2488
aF4.126263668248401e-05
aa(lp2489
S'narcissist'
p2490
aF4.126263668248401e-05
aa(lp2491
S'view'
p2492
aF0.0003713637301423561
aa(lp2493
S'schaeffer'
p2494
aF8.252527336496802e-05
aa(lp2495
S'vampir'
p2496
aF0.00020631318341242006
aa(lp2497
S'compens'
p2498
aF0.00016505054672993604
aa(lp2499
S'musti'
p2500
aF4.126263668248401e-05
aa(lp2501
S'distort'
p2502
aF4.126263668248401e-05
aa(lp2503
S'calcul'
p2504
aF8.252527336496802e-05
aa(lp2505
S'unmistak'
p2506
aF4.126263668248401e-05
aa(lp2507
S'type'
p2508
aF0.00020631318341242006
aa(lp2509
S'dinner'
p2510
aF4.126263668248401e-05
aa(lp2511
S'bruis'
p2512
aF4.126263668248401e-05
aa(lp2513
S'inject'
p2514
aF4.126263668248401e-05
aa(lp2515
S'tract'
p2516
aF8.252527336496802e-05
aa(lp2517
S'praiseworthi'
p2518
aF4.126263668248401e-05
aa(lp2519
S'appreci'
p2520
aF0.0002888384567773881
aa(lp2521
S'challeng'
p2522
aF0.00020631318341242006
aa(lp2523
S'sincer'
p2524
aF0.0002475758200949041
aa(lp2525
S'\\*\\*'
p2526
aF4.126263668248401e-05
aa(lp2527
S'trick'
p2528
aF0.00012378791004745204
aa(lp2529
S'matter'
p2530
aF0.0007427274602847122
aa(lp2531
S'ivan'
p2532
aF8.252527336496802e-05
aa(lp2533
S'learn'
p2534
aF0.00020631318341242006
aa(lp2535
S'guy'
p2536
aF0.0005364142768722922
aa(lp2537
S'bielinski'
p2538
aF4.126263668248401e-05
aa(lp2539
S'discomfort'
p2540
aF4.126263668248401e-05
aa(lp2541
S'reproduc'
p2542
aF4.126263668248401e-05
aa(lp2543
S'jump'
p2544
aF8.252527336496802e-05
aa(lp2545
S'trade'
p2546
aF0.00012378791004745204
aa(lp2547
S'accept'
p2548
aF0.00012378791004745204
aa(lp2549
S'python'
p2550
aF4.126263668248401e-05
aa(lp2551
S"'50"
p2552
aF4.126263668248401e-05
aa(lp2553
S'solemn'
p2554
aF8.252527336496802e-05
aa(lp2555
S'wreak'
p2556
aF8.252527336496802e-05
aa(lp2557
S'bemus'
p2558
aF4.126263668248401e-05
aa(lp2559
S'saga'
p2560
aF0.00012378791004745204
aa(lp2561
S'shout'
p2562
aF8.252527336496802e-05
aa(lp2563
S'kool-aid'
p2564
aF4.126263668248401e-05
aa(lp2565
S'wreck'
p2566
aF4.126263668248401e-05
aa(lp2567
S'doc'
p2568
aF4.126263668248401e-05
aa(lp2569
S'depend'
p2570
aF0.0002888384567773881
aa(lp2571
S'pop-cultur'
p2572
aF4.126263668248401e-05
aa(lp2573
S'unfinish'
p2574
aF4.126263668248401e-05
aa(lp2575
S'ice'
p2576
aF0.0003301010934598721
aa(lp2577
S'sob-stori'
p2578
aF4.126263668248401e-05
aa(lp2579
S'cross'
p2580
aF0.0002475758200949041
aa(lp2581
S'commit'
p2582
aF8.252527336496802e-05
aa(lp2583
S'unpersuas'
p2584
aF4.126263668248401e-05
aa(lp2585
S'cross'
p2586
aF0.0002475758200949041
aa(lp2587
S'dope'
p2588
aF4.126263668248401e-05
aa(lp2589
S'appreci'
p2590
aF0.0002888384567773881
aa(lp2591
S'empath'
p2592
aF4.126263668248401e-05
aa(lp2593
S'demeanour'
p2594
aF4.126263668248401e-05
aa(lp2595
S'lot'
p2596
aF0.0008665153703321642
aa(lp2597
S'blur'
p2598
aF4.126263668248401e-05
aa(lp2599
S'balkan'
p2600
aF4.126263668248401e-05
aa(lp2601
S'paulin'
p2602
aF8.252527336496802e-05
aa(lp2603
S'havoc'
p2604
aF4.126263668248401e-05
aa(lp2605
S'stringent'
p2606
aF4.126263668248401e-05
aa(lp2607
S'high-tech'
p2608
aF4.126263668248401e-05
aa(lp2609
S'pulp'
p2610
aF0.00012378791004745204
aa(lp2611
S'inspect'
p2612
aF4.126263668248401e-05
aa(lp2613
S'count'
p2614
aF0.00016505054672993604
aa(lp2615
S'patho'
p2616
aF0.00012378791004745204
aa(lp2617
S'wrap'
p2618
aF0.00016505054672993604
aa(lp2619
S'frighten'
p2620
aF0.00012378791004745204
aa(lp2621
S'processor'
p2622
aF8.252527336496802e-05
aa(lp2623
S'weepi'
p2624
aF4.126263668248401e-05
aa(lp2625
S'hidden-agenda'
p2626
aF4.126263668248401e-05
aa(lp2627
S'associ'
p2628
aF8.252527336496802e-05
aa(lp2629
S'object'
p2630
aF0.00012378791004745204
aa(lp2631
S'unendur'
p2632
aF4.126263668248401e-05
aa(lp2633
S'out-of-field'
p2634
aF4.126263668248401e-05
aa(lp2635
S'servic'
p2636
aF0.0002475758200949041
aa(lp2637
S'contact'
p2638
aF4.126263668248401e-05
aa(lp2639
S'phone'
p2640
aF0.00012378791004745204
aa(lp2641
S'fieri'
p2642
aF4.126263668248401e-05
aa(lp2643
S'southern'
p2644
aF8.252527336496802e-05
aa(lp2645
S'mixed-up'
p2646
aF4.126263668248401e-05
aa(lp2647
S'veer'
p2648
aF0.00012378791004745204
aa(lp2649
S'milieu'
p2650
aF4.126263668248401e-05
aa(lp2651
S'discourag'
p2652
aF4.126263668248401e-05
aa(lp2653
S'rough'
p2654
aF8.252527336496802e-05
aa(lp2655
S'produc'
p2656
aF0.0002475758200949041
aa(lp2657
S'demograph'
p2658
aF0.00016505054672993604
aa(lp2659
S'character-ori'
p2660
aF4.126263668248401e-05
aa(lp2661
S'eye-catch'
p2662
aF4.126263668248401e-05
aa(lp2663
S'bambi'
p2664
aF4.126263668248401e-05
aa(lp2665
S'fax'
p2666
aF4.126263668248401e-05
aa(lp2667
S'kouyat'
p2668
aF8.252527336496802e-05
aa(lp2669
S'fad'
p2670
aF4.126263668248401e-05
aa(lp2671
S'biblic'
p2672
aF4.126263668248401e-05
aa(lp2673
S'distract'
p2674
aF0.00012378791004745204
aa(lp2675
S'hindsight'
p2676
aF4.126263668248401e-05
aa(lp2677
S'fiction'
p2678
aF0.00016505054672993604
aa(lp2679
S'silenc'
p2680
aF0.00012378791004745204
aa(lp2681
S'laissez'
p2682
aF4.126263668248401e-05
aa(lp2683
S'multi-charact'
p2684
aF4.126263668248401e-05
aa(lp2685
S'blab'
p2686
aF4.126263668248401e-05
aa(lp2687
S'fulfil'
p2688
aF0.00012378791004745204
aa(lp2689
S'cartoonish'
p2690
aF4.126263668248401e-05
aa(lp2691
S'bleu'
p2692
aF4.126263668248401e-05
aa(lp2693
S'mixer'
p2694
aF4.126263668248401e-05
aa(lp2695
S'marin'
p2696
aF4.126263668248401e-05
aa(lp2697
S'shore'
p2698
aF4.126263668248401e-05
aa(lp2699
S'menac'
p2700
aF8.252527336496802e-05
aa(lp2701
S'great-grandson'
p2702
aF4.126263668248401e-05
aa(lp2703
S'orang'
p2704
aF4.126263668248401e-05
aa(lp2705
S'explain'
p2706
aF0.00016505054672993604
aa(lp2707
S'recal'
p2708
aF8.252527336496802e-05
aa(lp2709
S'surround'
p2710
aF0.00012378791004745204
aa(lp2711
S'era'
p2712
aF0.0002475758200949041
aa(lp2713
S'wiser'
p2714
aF4.126263668248401e-05
aa(lp2715
S'charit'
p2716
aF4.126263668248401e-05
aa(lp2717
S'propaganda'
p2718
aF0.00016505054672993604
aa(lp2719
S'boogaloo'
p2720
aF4.126263668248401e-05
aa(lp2721
S'bardem'
p2722
aF4.126263668248401e-05
aa(lp2723
S'overblown'
p2724
aF4.126263668248401e-05
aa(lp2725
S'redneck-versus-blueblood'
p2726
aF4.126263668248401e-05
aa(lp2727
S'land'
p2728
aF8.252527336496802e-05
aa(lp2729
S'blow'
p2730
aF0.00012378791004745204
aa(lp2731
S'tide'
p2732
aF4.126263668248401e-05
aa(lp2733
S'paradox'
p2734
aF4.126263668248401e-05
aa(lp2735
S'benefit'
p2736
aF0.00012378791004745204
aa(lp2737
S'sprawl'
p2738
aF4.126263668248401e-05
aa(lp2739
S'delusion'
p2740
aF4.126263668248401e-05
aa(lp2741
S'exhaust'
p2742
aF0.00016505054672993604
aa(lp2743
S'addict'
p2744
aF4.126263668248401e-05
aa(lp2745
S'breed'
p2746
aF4.126263668248401e-05
aa(lp2747
S'fifteen-minut'
p2748
aF4.126263668248401e-05
aa(lp2749
S'close'
p2750
aF0.0003301010934598721
aa(lp2751
S'exhaust'
p2752
aF0.00016505054672993604
aa(lp2753
S'gel'
p2754
aF0.00012378791004745204
aa(lp2755
S'celeb-strewn'
p2756
aF4.126263668248401e-05
aa(lp2757
S'confin'
p2758
aF8.252527336496802e-05
aa(lp2759
S'confin'
p2760
aF8.252527336496802e-05
aa(lp2761
S'gag'
p2762
aF0.0004951516401898082
aa(lp2763
S'gay'
p2764
aF0.00020631318341242006
aa(lp2765
S'novel'
p2766
aF0.0002888384567773881
aa(lp2767
S'address'
p2768
aF8.252527336496802e-05
aa(lp2769
S'squeez'
p2770
aF8.252527336496802e-05
aa(lp2771
S'statement'
p2772
aF4.126263668248401e-05
aa(lp2773
S'harmon'
p2774
aF8.252527336496802e-05
aa(lp2775
S'rudimentari'
p2776
aF4.126263668248401e-05
aa(lp2777
S'quicki'
p2778
aF4.126263668248401e-05
aa(lp2779
S'associ'
p2780
aF8.252527336496802e-05
aa(lp2781
S'fuddy-duddi'
p2782
aF4.126263668248401e-05
aa(lp2783
S'entertainingli'
p2784
aF4.126263668248401e-05
aa(lp2785
S'graveyard'
p2786
aF4.126263668248401e-05
aa(lp2787
S'explos'
p2788
aF0.00020631318341242006
aa(lp2789
S'mute'
p2790
aF8.252527336496802e-05
aa(lp2791
S'angl'
p2792
aF4.126263668248401e-05
aa(lp2793
S'victim'
p2794
aF0.0002475758200949041
aa(lp2795
S'explos'
p2796
aF0.00020631318341242006
aa(lp2797
S'angri'
p2798
aF8.252527336496802e-05
aa(lp2799
S'neighbor'
p2800
aF4.126263668248401e-05
aa(lp2801
S'inform'
p2802
aF0.00016505054672993604
aa(lp2803
S'yosuk'
p2804
aF4.126263668248401e-05
aa(lp2805
S'war-ravag'
p2806
aF4.126263668248401e-05
aa(lp2807
S'victim'
p2808
aF0.0002475758200949041
aa(lp2809
S"'em"
p2810
aF0.00016505054672993604
aa(lp2811
S'fit'
p2812
aF0.0002475758200949041
aa(lp2813
S'gross-out'
p2814
aF0.00016505054672993604
aa(lp2815
S'inform'
p2816
aF0.00016505054672993604
aa(lp2817
S'parad'
p2818
aF8.252527336496802e-05
aa(lp2819
S'fanboy'
p2820
aF4.126263668248401e-05
aa(lp2821
S'careen'
p2822
aF8.252527336496802e-05
aa(lp2823
S'exist'
p2824
aF0.0002475758200949041
aa(lp2825
S'public'
p2826
aF0.00012378791004745204
aa(lp2827
S'raucou'
p2828
aF4.126263668248401e-05
aa(lp2829
S'hook'
p2830
aF8.252527336496802e-05
aa(lp2831
S'portion'
p2832
aF4.126263668248401e-05
aa(lp2833
S'folk'
p2834
aF0.00016505054672993604
aa(lp2835
S'poet'
p2836
aF8.252527336496802e-05
aa(lp2837
S'audaci'
p2838
aF4.126263668248401e-05
aa(lp2839
S'holi'
p2840
aF4.126263668248401e-05
aa(lp2841
S'explain'
p2842
aF0.00016505054672993604
aa(lp2843
S'drug-rel'
p2844
aF4.126263668248401e-05
aa(lp2845
S'cut'
p2846
aF0.0003301010934598721
aa(lp2847
S'potenti'
p2848
aF0.0003301010934598721
aa(lp2849
S'fever-pitch'
p2850
aF4.126263668248401e-05
aa(lp2851
S'distract'
p2852
aF0.00012378791004745204
aa(lp2853
S'bit'
p2854
aF0.0006602021869197441
aa(lp2855
S'mask'
p2856
aF4.126263668248401e-05
aa(lp2857
S'terror'
p2858
aF0.00016505054672993604
aa(lp2859
S'preval'
p2860
aF4.126263668248401e-05
aa(lp2861
S'drench'
p2862
aF4.126263668248401e-05
aa(lp2863
S'graphic'
p2864
aF0.00012378791004745204
aa(lp2865
S'piffl'
p2866
aF8.252527336496802e-05
aa(lp2867
S'con'
p2868
aF0.00012378791004745204
aa(lp2869
S'presson'
p2870
aF4.126263668248401e-05
aa(lp2871
S'inspir'
p2872
aF0.0004538890035073241
aa(lp2873
S'mile'
p2874
aF0.00012378791004745204
aa(lp2875
S'increas'
p2876
aF4.126263668248401e-05
aa(lp2877
S'hous'
p2878
aF0.0002888384567773881
aa(lp2879
S'avoid'
p2880
aF0.00012378791004745204
aa(lp2881
S'caddyshack'
p2882
aF4.126263668248401e-05
aa(lp2883
S'flavorless'
p2884
aF4.126263668248401e-05
aa(lp2885
S'surround'
p2886
aF0.00012378791004745204
aa(lp2887
S'sincer'
p2888
aF0.0002475758200949041
aa(lp2889
S'gaza'
p2890
aF4.126263668248401e-05
aa(lp2891
S'produc'
p2892
aF0.0002475758200949041
aa(lp2893
S'gay'
p2894
aF0.00020631318341242006
aa(lp2895
S'overwhelm'
p2896
aF0.00012378791004745204
aa(lp2897
S'anne-sophi'
p2898
aF4.126263668248401e-05
aa(lp2899
S'manifest'
p2900
aF8.252527336496802e-05
aa(lp2901
S'faceoff'
p2902
aF4.126263668248401e-05
aa(lp2903
S'veer'
p2904
aF0.00012378791004745204
aa(lp2905
S'lofti'
p2906
aF8.252527336496802e-05
aa(lp2907
S'sall'
p2908
aF4.126263668248401e-05
aa(lp2909
S'groen'
p2910
aF4.126263668248401e-05
aa(lp2911
S'mockumentari'
p2912
aF4.126263668248401e-05
aa(lp2913
S'remain'
p2914
aF0.0003301010934598721
aa(lp2915
S'terror'
p2916
aF0.00016505054672993604
aa(lp2917
S'gang'
p2918
aF0.00012378791004745204
aa(lp2919
S'sucker'
p2920
aF4.126263668248401e-05
aa(lp2921
S'posit'
p2922
aF0.00016505054672993604
aa(lp2923
S'palestinian'
p2924
aF4.126263668248401e-05
aa(lp2925
S'minim'
p2926
aF4.126263668248401e-05
aa(lp2927
S'50-year'
p2928
aF4.126263668248401e-05
aa(lp2929
S'catalog'
p2930
aF4.126263668248401e-05
aa(lp2931
S'wildli'
p2932
aF0.00012378791004745204
aa(lp2933
S'death'
p2934
aF0.0002888384567773881
aa(lp2935
S'select'
p2936
aF8.252527336496802e-05
aa(lp2937
S'doc'
p2938
aF4.126263668248401e-05
aa(lp2939
S'wrap'
p2940
aF0.00016505054672993604
aa(lp2941
S'select'
p2942
aF8.252527336496802e-05
aa(lp2943
S'serial'
p2944
aF0.00012378791004745204
aa(lp2945
S'overwhelm'
p2946
aF0.00012378791004745204
aa(lp2947
S'der'
p2948
aF4.126263668248401e-05
aa(lp2949
S'shift'
p2950
aF8.252527336496802e-05
aa(lp2951
S'plate'
p2952
aF8.252527336496802e-05
aa(lp2953
S'remembr'
p2954
aF4.126263668248401e-05
aa(lp2955
S'uncheck'
p2956
aF8.252527336496802e-05
aa(lp2957
S'breath'
p2958
aF0.00012378791004745204
aa(lp2959
S'properti'
p2960
aF4.126263668248401e-05
aa(lp2961
S'intacto'
p2962
aF4.126263668248401e-05
aa(lp2963
S'origin'
p2964
aF0.0008252527336496802
aa(lp2965
S'prove'
p2966
aF0.0003713637301423561
aa(lp2967
S'maelstrom'
p2968
aF8.252527336496802e-05
aa(lp2969
S'explos'
p2970
aF0.00020631318341242006
aa(lp2971
S'punch-and-judi'
p2972
aF4.126263668248401e-05
aa(lp2973
S'view'
p2974
aF0.0003713637301423561
aa(lp2975
S'underplay'
p2976
aF4.126263668248401e-05
aa(lp2977
S'rez'
p2978
aF4.126263668248401e-05
aa(lp2979
S'red'
p2980
aF0.00016505054672993604
aa(lp2981
S'marin'
p2982
aF4.126263668248401e-05
aa(lp2983
S'killer'
p2984
aF0.00020631318341242006
aa(lp2985
S'kill'
p2986
aF0.00016505054672993604
aa(lp2987
S'verg'
p2988
aF8.252527336496802e-05
aa(lp2989
S'so-bad-they'
p2990
aF4.126263668248401e-05
aa(lp2991
S'glimps'
p2992
aF0.00016505054672993604
aa(lp2993
S'click'
p2994
aF4.126263668248401e-05
aa(lp2995
S'element'
p2996
aF0.0003301010934598721
aa(lp2997
S'rot'
p2998
aF4.126263668248401e-05
aa(lp2999
S'intercut'
p3000
aF4.126263668248401e-05
aa(lp3001
S'sweetest'
p3002
aF4.126263668248401e-05
aa(lp3003
S'peski'
p3004
aF8.252527336496802e-05
aa(lp3005
S'hell'
p3006
aF0.0002475758200949041
aa(lp3007
S'labor'
p3008
aF0.00012378791004745204
aa(lp3009
S'teen-target'
p3010
aF4.126263668248401e-05
aa(lp3011
S'surefir'
p3012
aF4.126263668248401e-05
aa(lp3013
S'mckluski'
p3014
aF4.126263668248401e-05
aa(lp3015
S'diva'
p3016
aF4.126263668248401e-05
aa(lp3017
S'so-so'
p3018
aF8.252527336496802e-05
aa(lp3019
S'rug'
p3020
aF8.252527336496802e-05
aa(lp3021
S'punch-drunk'
p3022
aF8.252527336496802e-05
aa(lp3023
S'paranoid'
p3024
aF4.126263668248401e-05
aa(lp3025
S'scrutini'
p3026
aF4.126263668248401e-05
aa(lp3027
S'remain'
p3028
aF0.0003301010934598721
aa(lp3029
S'overwhelm'
p3030
aF0.00012378791004745204
aa(lp3031
S'low-budget'
p3032
aF8.252527336496802e-05
aa(lp3033
S'cliqu'
p3034
aF4.126263668248401e-05
aa(lp3035
S'closur'
p3036
aF4.126263668248401e-05
aa(lp3037
S'kitten'
p3038
aF4.126263668248401e-05
aa(lp3039
S'over-amor'
p3040
aF4.126263668248401e-05
aa(lp3041
S'heap'
p3042
aF4.126263668248401e-05
aa(lp3043
S'dispossess'
p3044
aF4.126263668248401e-05
aa(lp3045
S'intellectu'
p3046
aF0.00016505054672993604
aa(lp3047
S'media'
p3048
aF4.126263668248401e-05
aa(lp3049
S'death'
p3050
aF0.0002888384567773881
aa(lp3051
S'likabl'
p3052
aF8.252527336496802e-05
aa(lp3053
S'likabl'
p3054
aF8.252527336496802e-05
aa(lp3055
S'brisk'
p3056
aF8.252527336496802e-05
aa(lp3057
S'abus'
p3058
aF8.252527336496802e-05
aa(lp3059
S'highbrow'
p3060
aF4.126263668248401e-05
aa(lp3061
S'channel'
p3062
aF0.00016505054672993604
aa(lp3063
S'stupor'
p3064
aF4.126263668248401e-05
aa(lp3065
S'wiseman'
p3066
aF8.252527336496802e-05
aa(lp3067
S'classic'
p3068
aF0.0004126263668248401
aa(lp3069
S'compet'
p3070
aF0.00016505054672993604
aa(lp3071
S'taught'
p3072
aF4.126263668248401e-05
aa(lp3073
S'inspir'
p3074
aF0.0004538890035073241
aa(lp3075
S'up'
p3076
aF0.0021456571074891686
aa(lp3077
S'root'
p3078
aF0.00020631318341242006
aa(lp3079
S'guard'
p3080
aF4.126263668248401e-05
aa(lp3081
S'accept'
p3082
aF0.00012378791004745204
aa(lp3083
S'big-bug'
p3084
aF4.126263668248401e-05
aa(lp3085
S'disingenu'
p3086
aF4.126263668248401e-05
aa(lp3087
S'sociopath'
p3088
aF4.126263668248401e-05
aa(lp3089
S'brief'
p3090
aF8.252527336496802e-05
aa(lp3091
S'glamour'
p3092
aF4.126263668248401e-05
aa(lp3093
S'kouri'
p3094
aF4.126263668248401e-05
aa(lp3095
S'wisp'
p3096
aF4.126263668248401e-05
aa(lp3097
S'murder'
p3098
aF0.0002888384567773881
aa(lp3099
S'shorti'
p3100
aF4.126263668248401e-05
aa(lp3101
S'rebellion'
p3102
aF8.252527336496802e-05
aa(lp3103
S'dealt'
p3104
aF4.126263668248401e-05
aa(lp3105
S'contact'
p3106
aF4.126263668248401e-05
aa(lp3107
S'out-outrag'
p3108
aF4.126263668248401e-05
aa(lp3109
S'damm'
p3110
aF4.126263668248401e-05
aa(lp3111
S'preposter'
p3112
aF0.00012378791004745204
aa(lp3113
S'gunfir'
p3114
aF4.126263668248401e-05
aa(lp3115
S'find'
p3116
aF0.0008252527336496802
aa(lp3117
S'depend'
p3118
aF0.0002888384567773881
aa(lp3119
S'inform'
p3120
aF0.00016505054672993604
aa(lp3121
S'flatten'
p3122
aF8.252527336496802e-05
aa(lp3123
S'genit'
p3124
aF4.126263668248401e-05
aa(lp3125
S'anti-cathol'
p3126
aF4.126263668248401e-05
aa(lp3127
S'pen'
p3128
aF4.126263668248401e-05
aa(lp3129
S'pep'
p3130
aF4.126263668248401e-05
aa(lp3131
S'meant'
p3132
aF0.00020631318341242006
aa(lp3133
S'challeng'
p3134
aF0.00020631318341242006
aa(lp3135
S'por'
p3136
aF4.126263668248401e-05
aa(lp3137
S'payback'
p3138
aF4.126263668248401e-05
aa(lp3139
S'januari'
p3140
aF4.126263668248401e-05
aa(lp3141
S'lillard'
p3142
aF4.126263668248401e-05
aa(lp3143
S'murder'
p3144
aF0.0002888384567773881
aa(lp3145
S'pictur'
p3146
aF0.0009490406436971322
aa(lp3147
S'winc'
p3148
aF4.126263668248401e-05
aa(lp3149
S'evolv'
p3150
aF8.252527336496802e-05
aa(lp3151
S'salut'
p3152
aF4.126263668248401e-05
aa(lp3153
S'dust-cak'
p3154
aF4.126263668248401e-05
aa(lp3155
S'breath'
p3156
aF0.00012378791004745204
aa(lp3157
S'meati'
p3158
aF4.126263668248401e-05
aa(lp3159
S'pro'
p3160
aF4.126263668248401e-05
aa(lp3161
S'bent'
p3162
aF4.126263668248401e-05
aa(lp3163
S'beyond'
p3164
aF0.0002475758200949041
aa(lp3165
S'spend'
p3166
aF0.00016505054672993604
aa(lp3167
S'pun'
p3168
aF4.126263668248401e-05
aa(lp3169
S'speck'
p3170
aF4.126263668248401e-05
aa(lp3171
S'royal'
p3172
aF4.126263668248401e-05
aa(lp3173
S'triniti'
p3174
aF4.126263668248401e-05
aa(lp3175
S'bee'
p3176
aF4.126263668248401e-05
aa(lp3177
S'juxtaposit'
p3178
aF4.126263668248401e-05
aa(lp3179
S'kid-friendli'
p3180
aF4.126263668248401e-05
aa(lp3181
S'drabli'
p3182
aF4.126263668248401e-05
aa(lp3183
S'imag'
p3184
aF0.0003713637301423561
aa(lp3185
S'girl-buddi'
p3186
aF4.126263668248401e-05
aa(lp3187
S'butter'
p3188
aF4.126263668248401e-05
aa(lp3189
S'shrug'
p3190
aF8.252527336496802e-05
aa(lp3191
S'skateboard'
p3192
aF0.00012378791004745204
aa(lp3193
S'coat'
p3194
aF8.252527336496802e-05
aa(lp3195
S'respect'
p3196
aF0.0003301010934598721
aa(lp3197
S'respect'
p3198
aF0.0003301010934598721
aa(lp3199
S'teen-ori'
p3200
aF4.126263668248401e-05
aa(lp3201
S'precis'
p3202
aF0.00016505054672993604
aa(lp3203
S'k-19'
p3204
aF8.252527336496802e-05
aa(lp3205
S'plod'
p3206
aF0.00020631318341242006
aa(lp3207
S'schizophrenia'
p3208
aF4.126263668248401e-05
aa(lp3209
S'acrid'
p3210
aF4.126263668248401e-05
aa(lp3211
S'donovan'
p3212
aF4.126263668248401e-05
aa(lp3213
S'sucker'
p3214
aF4.126263668248401e-05
aa(lp3215
S'convers'
p3216
aF0.00016505054672993604
aa(lp3217
S'kill'
p3218
aF0.00016505054672993604
aa(lp3219
S'hardli'
p3220
aF0.00020631318341242006
aa(lp3221
S'plod'
p3222
aF0.00020631318341242006
aa(lp3223
S'killer'
p3224
aF0.00020631318341242006
aa(lp3225
S'expend'
p3226
aF4.126263668248401e-05
aa(lp3227
S'interpret'
p3228
aF8.252527336496802e-05
aa(lp3229
S'childlik'
p3230
aF4.126263668248401e-05
aa(lp3231
S'undress'
p3232
aF4.126263668248401e-05
aa(lp3233
S'hate'
p3234
aF0.0002475758200949041
aa(lp3235
S'hat'
p3236
aF8.252527336496802e-05
aa(lp3237
S'hash'
p3238
aF4.126263668248401e-05
aa(lp3239
S'imag'
p3240
aF0.0003713637301423561
aa(lp3241
S'learn'
p3242
aF0.00020631318341242006
aa(lp3243
S'root'
p3244
aF0.00020631318341242006
aa(lp3245
S'rope'
p3246
aF4.126263668248401e-05
aa(lp3247
S'outsel'
p3248
aF4.126263668248401e-05
aa(lp3249
S'romp'
p3250
aF0.00016505054672993604
aa(lp3251
S'distant'
p3252
aF4.126263668248401e-05
aa(lp3253
S'train'
p3254
aF8.252527336496802e-05
aa(lp3255
S'ball-and-chain'
p3256
aF4.126263668248401e-05
aa(lp3257
S'sleaz'
p3258
aF4.126263668248401e-05
aa(lp3259
S'indulg'
p3260
aF0.00012378791004745204
aa(lp3261
S'layer'
p3262
aF0.00016505054672993604
aa(lp3263
S'indulg'
p3264
aF0.00012378791004745204
aa(lp3265
S'root'
p3266
aF0.00020631318341242006
aa(lp3267
S'trade'
p3268
aF0.00012378791004745204
aa(lp3269
S'admir'
p3270
aF0.0003301010934598721
aa(lp3271
S'expos'
p3272
aF8.252527336496802e-05
aa(lp3273
S'afterlif'
p3274
aF4.126263668248401e-05
aa(lp3275
S'action-and-popcorn'
p3276
aF4.126263668248401e-05
aa(lp3277
S'rabbit-proof'
p3278
aF8.252527336496802e-05
aa(lp3279
S'injustic'
p3280
aF4.126263668248401e-05
aa(lp3281
S'introduc'
p3282
aF8.252527336496802e-05
aa(lp3283
S'shock'
p3284
aF0.0003713637301423561
aa(lp3285
S'antholog'
p3286
aF4.126263668248401e-05
aa(lp3287
S'transit'
p3288
aF8.252527336496802e-05
aa(lp3289
S'stranger'
p3290
aF8.252527336496802e-05
aa(lp3291
S'mumbo'
p3292
aF4.126263668248401e-05
aa(lp3293
S'170'
p3294
aF4.126263668248401e-05
aa(lp3295
S'9\\/11'
p3296
aF4.126263668248401e-05
aa(lp3297
S'recreat'
p3298
aF8.252527336496802e-05
aa(lp3299
S'tent'
p3300
aF4.126263668248401e-05
aa(lp3301
S'type'
p3302
aF0.00020631318341242006
aa(lp3303
S'type'
p3304
aF0.00020631318341242006
aa(lp3305
S'manifest'
p3306
aF8.252527336496802e-05
aa(lp3307
S'zealand'
p3308
aF4.126263668248401e-05
aa(lp3309
S'hate'
p3310
aF0.0002475758200949041
aa(lp3311
S'happi'
p3312
aF0.0002475758200949041
aa(lp3313
S'pour'
p3314
aF4.126263668248401e-05
aa(lp3315
S'thunder'
p3316
aF4.126263668248401e-05
aa(lp3317
S'inmat'
p3318
aF4.126263668248401e-05
aa(lp3319
S'simplist'
p3320
aF0.00020631318341242006
aa(lp3321
S'rebelli'
p3322
aF4.126263668248401e-05
aa(lp3323
S'vulgar'
p3324
aF0.00012378791004745204
aa(lp3325
S'tune'
p3326
aF8.252527336496802e-05
aa(lp3327
S'ring'
p3328
aF0.00016505054672993604
aa(lp3329
S'poet'
p3330
aF8.252527336496802e-05
aa(lp3331
S'tune'
p3332
aF8.252527336496802e-05
aa(lp3333
S'mongrel'
p3334
aF4.126263668248401e-05
aa(lp3335
S'happi'
p3336
aF0.0002475758200949041
aa(lp3337
S'grossli'
p3338
aF4.126263668248401e-05
aa(lp3339
S'produc'
p3340
aF0.0002475758200949041
aa(lp3341
S'produc'
p3342
aF0.0002475758200949041
aa(lp3343
S'produc'
p3344
aF0.0002475758200949041
aa(lp3345
S'je-gyu'
p3346
aF4.126263668248401e-05
aa(lp3347
S'groceri'
p3348
aF4.126263668248401e-05
aa(lp3349
S'magnifiqu'
p3350
aF4.126263668248401e-05
aa(lp3351
S'sadism'
p3352
aF4.126263668248401e-05
aa(lp3353
S'footnot'
p3354
aF8.252527336496802e-05
aa(lp3355
S'inform'
p3356
aF0.00016505054672993604
aa(lp3357
S'elud'
p3358
aF4.126263668248401e-05
aa(lp3359
S'foreign'
p3360
aF0.0002475758200949041
aa(lp3361
S'classic'
p3362
aF0.0004126263668248401
aa(lp3363
S'owe'
p3364
aF0.00012378791004745204
aa(lp3365
S'bet'
p3366
aF8.252527336496802e-05
aa(lp3367
S'1.2'
p3368
aF4.126263668248401e-05
aa(lp3369
S'arthous'
p3370
aF4.126263668248401e-05
aa(lp3371
S'pinocchio'
p3372
aF0.00012378791004745204
aa(lp3373
S't-tell'
p3374
aF4.126263668248401e-05
aa(lp3375
S'utah'
p3376
aF4.126263668248401e-05
aa(lp3377
S'rediscov'
p3378
aF4.126263668248401e-05
aa(lp3379
S'cursori'
p3380
aF4.126263668248401e-05
aa(lp3381
S'slacker'
p3382
aF8.252527336496802e-05
aa(lp3383
S'barf'
p3384
aF4.126263668248401e-05
aa(lp3385
S'compet'
p3386
aF0.00016505054672993604
aa(lp3387
S'toothless'
p3388
aF4.126263668248401e-05
aa(lp3389
S'divert'
p3390
aF0.00020631318341242006
aa(lp3391
S'law'
p3392
aF8.252527336496802e-05
aa(lp3393
S'benefit'
p3394
aF0.00012378791004745204
aa(lp3395
S'errol'
p3396
aF4.126263668248401e-05
aa(lp3397
S'cabl'
p3398
aF8.252527336496802e-05
aa(lp3399
S'3000'
p3400
aF8.252527336496802e-05
aa(lp3401
S'incid'
p3402
aF0.00012378791004745204
aa(lp3403
S'sweati'
p3404
aF4.126263668248401e-05
aa(lp3405
S'bate'
p3406
aF4.126263668248401e-05
aa(lp3407
S'virtu'
p3408
aF8.252527336496802e-05
aa(lp3409
S'wife'
p3410
aF0.00016505054672993604
aa(lp3411
S'shout'
p3412
aF8.252527336496802e-05
aa(lp3413
S'log'
p3414
aF8.252527336496802e-05
aa(lp3415
S'rodrigu'
p3416
aF4.126263668248401e-05
aa(lp3417
S'lot'
p3418
aF0.0008665153703321642
aa(lp3419
S'expound'
p3420
aF4.126263668248401e-05
aa(lp3421
S'suppli'
p3422
aF8.252527336496802e-05
aa(lp3423
S'origin'
p3424
aF0.0008252527336496802
aa(lp3425
S'intent'
p3426
aF0.0003713637301423561
aa(lp3427
S'tide'
p3428
aF4.126263668248401e-05
aa(lp3429
S'kill'
p3430
aF0.00016505054672993604
aa(lp3431
S'indulg'
p3432
aF0.00012378791004745204
aa(lp3433
S'threshold'
p3434
aF4.126263668248401e-05
aa(lp3435
S'melodrama'
p3436
aF0.0004126263668248401
aa(lp3437
S'focu'
p3438
aF0.00012378791004745204
aa(lp3439
S'buck'
p3440
aF8.252527336496802e-05
aa(lp3441
S'hairpiec'
p3442
aF4.126263668248401e-05
aa(lp3443
S'invit'
p3444
aF8.252527336496802e-05
aa(lp3445
S'pose'
p3446
aF8.252527336496802e-05
aa(lp3447
S'million'
p3448
aF8.252527336496802e-05
aa(lp3449
S'bald'
p3450
aF4.126263668248401e-05
aa(lp3451
S'porn'
p3452
aF8.252527336496802e-05
aa(lp3453
S'implic'
p3454
aF4.126263668248401e-05
aa(lp3455
S'brooklyn'
p3456
aF8.252527336496802e-05
aa(lp3457
S'mid-rang'
p3458
aF4.126263668248401e-05
aa(lp3459
S'baader-meinhof'
p3460
aF4.126263668248401e-05
aa(lp3461
S'stormi'
p3462
aF4.126263668248401e-05
aa(lp3463
S'threat'
p3464
aF8.252527336496802e-05
aa(lp3465
S'frantic'
p3466
aF8.252527336496802e-05
aa(lp3467
S'laddish'
p3468
aF4.126263668248401e-05
aa(lp3469
S'collag'
p3470
aF8.252527336496802e-05
aa(lp3471
S'mar'
p3472
aF0.00016505054672993604
aa(lp3473
S'ouzo'
p3474
aF4.126263668248401e-05
aa(lp3475
S'accept'
p3476
aF0.00012378791004745204
aa(lp3477
S'parallel'
p3478
aF0.00016505054672993604
aa(lp3479
S'wahlberg'
p3480
aF8.252527336496802e-05
aa(lp3481
S'hardi'
p3482
aF4.126263668248401e-05
aa(lp3483
S'overshadow'
p3484
aF4.126263668248401e-05
aa(lp3485
S'palestinian'
p3486
aF4.126263668248401e-05
aa(lp3487
S'whit'
p3488
aF4.126263668248401e-05
aa(lp3489
S'toast'
p3490
aF4.126263668248401e-05
aa(lp3491
S'eight'
p3492
aF0.00012378791004745204
aa(lp3493
S'languidli'
p3494
aF4.126263668248401e-05
aa(lp3495
S'actual'
p3496
aF0.0005364142768722922
aa(lp3497
S'transit'
p3498
aF8.252527336496802e-05
aa(lp3499
S'compendium'
p3500
aF4.126263668248401e-05
aa(lp3501
S'appetit'
p3502
aF4.126263668248401e-05
aa(lp3503
S'well-act'
p3504
aF0.00016505054672993604
aa(lp3505
S'skateboard'
p3506
aF0.00012378791004745204
aa(lp3507
S'styliz'
p3508
aF8.252527336496802e-05
aa(lp3509
S'mug'
p3510
aF8.252527336496802e-05
aa(lp3511
S'crappola'
p3512
aF4.126263668248401e-05
aa(lp3513
S'agon'
p3514
aF4.126263668248401e-05
aa(lp3515
S'gore'
p3516
aF8.252527336496802e-05
aa(lp3517
S'channel'
p3518
aF0.00016505054672993604
aa(lp3519
S'will'
p3520
aF0.0023107076542191046
aa(lp3521
S'convers'
p3522
aF0.00016505054672993604
aa(lp3523
S'expiri'
p3524
aF4.126263668248401e-05
aa(lp3525
S'downtown'
p3526
aF4.126263668248401e-05
aa(lp3527
S'surviv'
p3528
aF0.00016505054672993604
aa(lp3529
S'pronounc'
p3530
aF8.252527336496802e-05
aa(lp3531
S'posit'
p3532
aF0.00016505054672993604
aa(lp3533
S'solemn'
p3534
aF8.252527336496802e-05
aa(lp3535
S'queasi'
p3536
aF4.126263668248401e-05
aa(lp3537
S'pose'
p3538
aF8.252527336496802e-05
aa(lp3539
S'shock'
p3540
aF0.0003713637301423561
aa(lp3541
S'compet'
p3542
aF0.00016505054672993604
aa(lp3543
S'sweetheart'
p3544
aF4.126263668248401e-05
aa(lp3545
S'cutesi'
p3546
aF8.252527336496802e-05
aa(lp3547
S'caustic'
p3548
aF4.126263668248401e-05
aa(lp3549
S'unspool'
p3550
aF8.252527336496802e-05
aa(lp3551
S'trashi'
p3552
aF0.00012378791004745204
aa(lp3553
S'grandios'
p3554
aF8.252527336496802e-05
aa(lp3555
S'assess'
p3556
aF4.126263668248401e-05
aa(lp3557
S'tasteless'
p3558
aF4.126263668248401e-05
aa(lp3559
S'span'
p3560
aF8.252527336496802e-05
aa(lp3561
S'phifer'
p3562
aF4.126263668248401e-05
aa(lp3563
S'tawdri'
p3564
aF0.00012378791004745204
aa(lp3565
S'moviehous'
p3566
aF4.126263668248401e-05
aa(lp3567
S'comment'
p3568
aF8.252527336496802e-05
aa(lp3569
S'slasher-movi'
p3570
aF4.126263668248401e-05
aa(lp3571
S'public'
p3572
aF0.00012378791004745204
aa(lp3573
S'wrap'
p3574
aF0.00016505054672993604
aa(lp3575
S'chest'
p3576
aF4.126263668248401e-05
aa(lp3577
S'spader'
p3578
aF4.126263668248401e-05
aa(lp3579
S'shift'
p3580
aF8.252527336496802e-05
aa(lp3581
S'atmospher'
p3582
aF0.0002475758200949041
aa(lp3583
S'booti'
p3584
aF4.126263668248401e-05
aa(lp3585
S'properti'
p3586
aF4.126263668248401e-05
aa(lp3587
S'suggest'
p3588
aF0.00016505054672993604
aa(lp3589
S'the-week'
p3590
aF4.126263668248401e-05
aa(lp3591
S'cheap'
p3592
aF0.00016505054672993604
aa(lp3593
S'mehta'
p3594
aF4.126263668248401e-05
aa(lp3595
S'liter'
p3596
aF0.00020631318341242006
aa(lp3597
S'condon'
p3598
aF4.126263668248401e-05
aa(lp3599
S'fluff'
p3600
aF0.00016505054672993604
aa(lp3601
S'pretti'
p3602
aF0.0006602021869197441
aa(lp3603
S'passer'
p3604
aF4.126263668248401e-05
aa(lp3605
S'subscript'
p3606
aF4.126263668248401e-05
aa(lp3607
S'commentari'
p3608
aF0.00012378791004745204
aa(lp3609
S'glitzi'
p3610
aF4.126263668248401e-05
aa(lp3611
S'cape'
p3612
aF4.126263668248401e-05
aa(lp3613
S'assembl'
p3614
aF8.252527336496802e-05
aa(lp3615
S'center'
p3616
aF0.00016505054672993604
aa(lp3617
S'explan'
p3618
aF4.126263668248401e-05
aa(lp3619
S'finish'
p3620
aF0.0002475758200949041
aa(lp3621
S'streak'
p3622
aF4.126263668248401e-05
aa(lp3623
S'benefit'
p3624
aF0.00012378791004745204
aa(lp3625
S'averag'
p3626
aF0.00016505054672993604
aa(lp3627
S'lessen'
p3628
aF4.126263668248401e-05
aa(lp3629
S'pepper'
p3630
aF4.126263668248401e-05
aa(lp3631
S'lesser'
p3632
aF8.252527336496802e-05
aa(lp3633
S'neuwirth'
p3634
aF4.126263668248401e-05
aa(lp3635
S'65th'
p3636
aF4.126263668248401e-05
aa(lp3637
S'work-hour'
p3638
aF4.126263668248401e-05
aa(lp3639
S'say'
p3640
aF0.0006189395502372602
aa(lp3641
S'airhead'
p3642
aF4.126263668248401e-05
aa(lp3643
S'vote'
p3644
aF8.252527336496802e-05
aa(lp3645
S'murder'
p3646
aF0.0002888384567773881
aa(lp3647
S'waters-lik'
p3648
aF4.126263668248401e-05
aa(lp3649
S'krige'
p3650
aF4.126263668248401e-05
aa(lp3651
S'nixon'
p3652
aF4.126263668248401e-05
aa(lp3653
S'eye-rol'
p3654
aF4.126263668248401e-05
aa(lp3655
S'snow'
p3656
aF8.252527336496802e-05
aa(lp3657
S'invit'
p3658
aF8.252527336496802e-05
aa(lp3659
S'respect'
p3660
aF0.0003301010934598721
aa(lp3661
S'seduc'
p3662
aF8.252527336496802e-05
aa(lp3663
S'enviou'
p3664
aF4.126263668248401e-05
aa(lp3665
S'stunt'
p3666
aF0.00016505054672993604
aa(lp3667
S'rollerblad'
p3668
aF4.126263668248401e-05
aa(lp3669
S'bang'
p3670
aF4.126263668248401e-05
aa(lp3671
S'respect'
p3672
aF0.0003301010934598721
aa(lp3673
S'glover'
p3674
aF4.126263668248401e-05
aa(lp3675
S'britney'
p3676
aF0.00012378791004745204
aa(lp3677
S'vertic'
p3678
aF4.126263668248401e-05
aa(lp3679
S'wave'
p3680
aF8.252527336496802e-05
aa(lp3681
S'graphic'
p3682
aF0.00012378791004745204
aa(lp3683
S'bare-midriff'
p3684
aF4.126263668248401e-05
aa(lp3685
S'mistak'
p3686
aF0.00012378791004745204
aa(lp3687
S'choic'
p3688
aF0.00020631318341242006
aa(lp3689
S'choquart'
p3690
aF4.126263668248401e-05
aa(lp3691
S'physic'
p3692
aF0.00020631318341242006
aa(lp3693
S'bone-dri'
p3694
aF4.126263668248401e-05
aa(lp3695
S'guy'
p3696
aF0.0005364142768722922
aa(lp3697
S'outshin'
p3698
aF4.126263668248401e-05
aa(lp3699
S'pilot'
p3700
aF4.126263668248401e-05
aa(lp3701
S'spoil'
p3702
aF4.126263668248401e-05
aa(lp3703
S'palat'
p3704
aF8.252527336496802e-05
aa(lp3705
S'blow'
p3706
aF0.00012378791004745204
aa(lp3707
S'pratfal'
p3708
aF4.126263668248401e-05
aa(lp3709
S'spot'
p3710
aF0.00016505054672993604
aa(lp3711
S'gargantuan'
p3712
aF4.126263668248401e-05
aa(lp3713
S'depend'
p3714
aF0.0002888384567773881
aa(lp3715
S'digest'
p3716
aF4.126263668248401e-05
aa(lp3717
S'tarantula'
p3718
aF4.126263668248401e-05
aa(lp3719
S'earn'
p3720
aF0.00012378791004745204
aa(lp3721
S'hepburn'
p3722
aF4.126263668248401e-05
aa(lp3723
S'sunshin'
p3724
aF4.126263668248401e-05
aa(lp3725
S'blood'
p3726
aF0.00012378791004745204
aa(lp3727
S'diop'
p3728
aF4.126263668248401e-05
aa(lp3729
S'prison'
p3730
aF0.00012378791004745204
aa(lp3731
S'argu'
p3732
aF0.00012378791004745204
aa(lp3733
S'cracker'
p3734
aF4.126263668248401e-05
aa(lp3735
S'footag'
p3736
aF0.00012378791004745204
aa(lp3737
S'flee'
p3738
aF8.252527336496802e-05
aa(lp3739
S'shoot-em-up'
p3740
aF4.126263668248401e-05
aa(lp3741
S'epilogu'
p3742
aF4.126263668248401e-05
aa(lp3743
S'foot'
p3744
aF4.126263668248401e-05
aa(lp3745
S'exist'
p3746
aF0.0002475758200949041
aa(lp3747
S'mug'
p3748
aF8.252527336496802e-05
aa(lp3749
S'villeneuv'
p3750
aF4.126263668248401e-05
aa(lp3751
S'breath'
p3752
aF0.00012378791004745204
aa(lp3753
S'plate'
p3754
aF8.252527336496802e-05
aa(lp3755
S'tarantula'
p3756
aF4.126263668248401e-05
aa(lp3757
S'narrat'
p3758
aF8.252527336496802e-05
aa(lp3759
S'fenc'
p3760
aF8.252527336496802e-05
aa(lp3761
S'tinseltown'
p3762
aF4.126263668248401e-05
aa(lp3763
S'classic'
p3764
aF0.0004126263668248401
aa(lp3765
S'therapi'
p3766
aF4.126263668248401e-05
aa(lp3767
S'destruct'
p3768
aF8.252527336496802e-05
aa(lp3769
S'stock'
p3770
aF0.00012378791004745204
aa(lp3771
S'restraint'
p3772
aF4.126263668248401e-05
aa(lp3773
S'misadventur'
p3774
aF4.126263668248401e-05
aa(lp3775
S'decenc'
p3776
aF0.00012378791004745204
aa(lp3777
S'feast'
p3778
aF8.252527336496802e-05
aa(lp3779
S'electr'
p3780
aF8.252527336496802e-05
aa(lp3781
S'build-up'
p3782
aF8.252527336496802e-05
aa(lp3783
S'train'
p3784
aF8.252527336496802e-05
aa(lp3785
S'challeng'
p3786
aF0.00020631318341242006
aa(lp3787
S'challeng'
p3788
aF0.00020631318341242006
aa(lp3789
S'reunion'
p3790
aF0.00012378791004745204
aa(lp3791
S'ampl'
p3792
aF4.126263668248401e-05
aa(lp3793
S'late-night'
p3794
aF4.126263668248401e-05
aa(lp3795
S'destruct'
p3796
aF8.252527336496802e-05
aa(lp3797
S'spot'
p3798
aF0.00016505054672993604
aa(lp3799
S'indulg'
p3800
aF0.00012378791004745204
aa(lp3801
S'xtc'
p3802
aF8.252527336496802e-05
aa(lp3803
S'easi'
p3804
aF0.0004126263668248401
aa(lp3805
S'discours'
p3806
aF4.126263668248401e-05
aa(lp3807
S'graceland'
p3808
aF4.126263668248401e-05
aa(lp3809
S'misfit'
p3810
aF4.126263668248401e-05
aa(lp3811
S'suggest'
p3812
aF0.00016505054672993604
aa(lp3813
S'narrat'
p3814
aF8.252527336496802e-05
aa(lp3815
S'trade'
p3816
aF0.00012378791004745204
aa(lp3817
S'zealand'
p3818
aF4.126263668248401e-05
aa(lp3819
S'tract'
p3820
aF8.252527336496802e-05
aa(lp3821
S'death'
p3822
aF0.0002888384567773881
aa(lp3823
S'strateg'
p3824
aF4.126263668248401e-05
aa(lp3825
S'spin'
p3826
aF0.00016505054672993604
aa(lp3827
S'nervou'
p3828
aF8.252527336496802e-05
aa(lp3829
S'burkina'
p3830
aF4.126263668248401e-05
aa(lp3831
S'follow-up'
p3832
aF4.126263668248401e-05
aa(lp3833
S'rapper'
p3834
aF4.126263668248401e-05
aa(lp3835
S'wisecrack'
p3836
aF4.126263668248401e-05
aa(lp3837
S'dens'
p3838
aF0.00012378791004745204
aa(lp3839
S'version'
p3840
aF0.0004951516401898082
aa(lp3841
S'white'
p3842
aF0.00020631318341242006
aa(lp3843
S'biopic'
p3844
aF8.252527336496802e-05
aa(lp3845
S'trick'
p3846
aF0.00012378791004745204
aa(lp3847
S'lurk'
p3848
aF8.252527336496802e-05
aa(lp3849
S'sometim'
p3850
aF0.0004538890035073241
aa(lp3851
S'subcontin'
p3852
aF4.126263668248401e-05
aa(lp3853
S'convers'
p3854
aF0.00016505054672993604
aa(lp3855
S'foundat'
p3856
aF4.126263668248401e-05
aa(lp3857
S'cipher'
p3858
aF0.00016505054672993604
aa(lp3859
S'near-hypnot'
p3860
aF4.126263668248401e-05
aa(lp3861
S'kill'
p3862
aF0.00016505054672993604
aa(lp3863
S'heartbreakingli'
p3864
aF8.252527336496802e-05
aa(lp3865
S'intellectu'
p3866
aF0.00016505054672993604
aa(lp3867
S'ireland'
p3868
aF4.126263668248401e-05
aa(lp3869
S'synthet'
p3870
aF4.126263668248401e-05
aa(lp3871
S'momentum'
p3872
aF8.252527336496802e-05
aa(lp3873
S'dictat'
p3874
aF4.126263668248401e-05
aa(lp3875
S'blunt'
p3876
aF8.252527336496802e-05
aa(lp3877
S'silberl'
p3878
aF8.252527336496802e-05
aa(lp3879
S'bailli'
p3880
aF4.126263668248401e-05
aa(lp3881
S'igbi'
p3882
aF8.252527336496802e-05
aa(lp3883
S'crane'
p3884
aF8.252527336496802e-05
aa(lp3885
S'hectic'
p3886
aF4.126263668248401e-05
aa(lp3887
S'well-develop'
p3888
aF4.126263668248401e-05
aa(lp3889
S'physic'
p3890
aF0.00020631318341242006
aa(lp3891
S'witch-styl'
p3892
aF4.126263668248401e-05
aa(lp3893
S'spoiler'
p3894
aF4.126263668248401e-05
aa(lp3895
S'wri'
p3896
aF0.00012378791004745204
aa(lp3897
S'count'
p3898
aF0.00016505054672993604
aa(lp3899
S'issu'
p3900
aF0.0002475758200949041
aa(lp3901
S'chick'
p3902
aF8.252527336496802e-05
aa(lp3903
S'infinit'
p3904
aF8.252527336496802e-05
aa(lp3905
S'address'
p3906
aF8.252527336496802e-05
aa(lp3907
S'trek'
p3908
aF0.00012378791004745204
aa(lp3909
S'crazi'
p3910
aF0.00020631318341242006
aa(lp3911
S'irrepress'
p3912
aF4.126263668248401e-05
aa(lp3913
S'thorough'
p3914
aF4.126263668248401e-05
aa(lp3915
S'eccentr'
p3916
aF0.00012378791004745204
aa(lp3917
S'circa'
p3918
aF4.126263668248401e-05
aa(lp3919
S'neat'
p3920
aF8.252527336496802e-05
aa(lp3921
S'murder'
p3922
aF0.0002888384567773881
aa(lp3923
S'menac'
p3924
aF8.252527336496802e-05
aa(lp3925
S'throw'
p3926
aF0.00020631318341242006
aa(lp3927
S'messag'
p3928
aF0.0005364142768722922
aa(lp3929
S'close'
p3930
aF0.0003301010934598721
aa(lp3931
S'close'
p3932
aF0.0003301010934598721
aa(lp3933
S'espn'
p3934
aF4.126263668248401e-05
aa(lp3935
S'hunt'
p3936
aF4.126263668248401e-05
aa(lp3937
S'bullet'
p3938
aF8.252527336496802e-05
aa(lp3939
S'cynic'
p3940
aF0.00016505054672993604
aa(lp3941
S'impact'
p3942
aF0.0002475758200949041
aa(lp3943
S'flag'
p3944
aF4.126263668248401e-05
aa(lp3945
S'news'
p3946
aF8.252527336496802e-05
aa(lp3947
S'not-so-big'
p3948
aF4.126263668248401e-05
aa(lp3949
S'narrat'
p3950
aF8.252527336496802e-05
aa(lp3951
S'telegraph'
p3952
aF4.126263668248401e-05
aa(lp3953
S'overwhelm'
p3954
aF0.00012378791004745204
aa(lp3955
S'unsatisfi'
p3956
aF0.00012378791004745204
aa(lp3957
S'avoid'
p3958
aF0.00012378791004745204
aa(lp3959
S'contrapt'
p3960
aF4.126263668248401e-05
aa(lp3961
S'unsatisfi'
p3962
aF0.00012378791004745204
aa(lp3963
S'exhaust'
p3964
aF0.00016505054672993604
aa(lp3965
S'contempt'
p3966
aF4.126263668248401e-05
aa(lp3967
S'atmospher'
p3968
aF0.0002475758200949041
aa(lp3969
S'rapidli'
p3970
aF4.126263668248401e-05
aa(lp3971
S'appreci'
p3972
aF0.0002888384567773881
aa(lp3973
S'repel'
p3974
aF4.126263668248401e-05
aa(lp3975
S'judg'
p3976
aF8.252527336496802e-05
aa(lp3977
S'appreci'
p3978
aF0.0002888384567773881
aa(lp3979
S'doubl'
p3980
aF0.00016505054672993604
aa(lp3981
S'kissing'
p3982
aF0.00012378791004745204
aa(lp3983
S'shortest'
p3984
aF4.126263668248401e-05
aa(lp3985
S'worn'
p3986
aF0.00012378791004745204
aa(lp3987
S'recreat'
p3988
aF8.252527336496802e-05
aa(lp3989
S'yesteryear'
p3990
aF4.126263668248401e-05
aa(lp3991
S'von'
p3992
aF4.126263668248401e-05
aa(lp3993
S'outer'
p3994
aF4.126263668248401e-05
aa(lp3995
S'tsai'
p3996
aF0.00012378791004745204
aa(lp3997
S'ver'
p3998
aF4.126263668248401e-05
aa(lp3999
S'compet'
p4000
aF0.00016505054672993604
aa(lp4001
S'fulfil'
p4002
aF0.00012378791004745204
aa(lp4003
S'van'
p4004
aF0.00016505054672993604
aa(lp4005
S'author'
p4006
aF8.252527336496802e-05
aa(lp4007
S'wider'
p4008
aF4.126263668248401e-05
aa(lp4009
S'widen'
p4010
aF4.126263668248401e-05
aa(lp4011
S'hatr'
p4012
aF4.126263668248401e-05
aa(lp4013
S'snazzi'
p4014
aF8.252527336496802e-05
aa(lp4015
S'costum'
p4016
aF0.00012378791004745204
aa(lp4017
S'derri'
p4018
aF4.126263668248401e-05
aa(lp4019
S'marmit'
p4020
aF4.126263668248401e-05
aa(lp4021
S'50-year-old'
p4022
aF4.126263668248401e-05
aa(lp4023
S'ford'
p4024
aF8.252527336496802e-05
aa(lp4025
S'cloy'
p4026
aF8.252527336496802e-05
aa(lp4027
S'dramedi'
p4028
aF4.126263668248401e-05
aa(lp4029
S'hairi'
p4030
aF4.126263668248401e-05
aa(lp4031
S'focu'
p4032
aF0.00012378791004745204
aa(lp4033
S'element'
p4034
aF0.0003301010934598721
aa(lp4035
S'servic'
p4036
aF0.0002475758200949041
aa(lp4037
S'wilder'
p4038
aF8.252527336496802e-05
aa(lp4039
S'shape'
p4040
aF8.252527336496802e-05
aa(lp4041
S'inspir'
p4042
aF0.0004538890035073241
aa(lp4043
S'up'
p4044
aF0.0021456571074891686
aa(lp4045
S'harvest'
p4046
aF4.126263668248401e-05
aa(lp4047
S'briefli'
p4048
aF4.126263668248401e-05
aa(lp4049
S'aussi'
p4050
aF4.126263668248401e-05
aa(lp4051
S'undo'
p4052
aF4.126263668248401e-05
aa(lp4053
S'explod'
p4054
aF4.126263668248401e-05
aa(lp4055
S'ever-rumin'
p4056
aF4.126263668248401e-05
aa(lp4057
S'barrel'
p4058
aF8.252527336496802e-05
aa(lp4059
S'affair'
p4060
aF0.00012378791004745204
aa(lp4061
S'white-empow'
p4062
aF4.126263668248401e-05
aa(lp4063
S'law'
p4064
aF8.252527336496802e-05
aa(lp4065
S'all-too-human'
p4066
aF4.126263668248401e-05
aa(lp4067
S'blighter'
p4068
aF4.126263668248401e-05
aa(lp4069
S'obvious'
p4070
aF0.00016505054672993604
aa(lp4071
S'hamstrung'
p4072
aF4.126263668248401e-05
aa(lp4073
S'glean'
p4074
aF4.126263668248401e-05
aa(lp4075
S'sometim'
p4076
aF0.0004538890035073241
aa(lp4077
S'tux'
p4078
aF4.126263668248401e-05
aa(lp4079
S'tub'
p4080
aF4.126263668248401e-05
aa(lp4081
S'inabl'
p4082
aF8.252527336496802e-05
aa(lp4083
S'extent'
p4084
aF8.252527336496802e-05
aa(lp4085
S'half-nak'
p4086
aF4.126263668248401e-05
aa(lp4087
S'urgenc'
p4088
aF8.252527336496802e-05
aa(lp4089
S'book'
p4090
aF0.0004951516401898082
aa(lp4091
S'investig'
p4092
aF8.252527336496802e-05
aa(lp4093
S'span'
p4094
aF8.252527336496802e-05
aa(lp4095
S'padr'
p4096
aF4.126263668248401e-05
aa(lp4097
S'leagu'
p4098
aF8.252527336496802e-05
aa(lp4099
S'upset'
p4100
aF0.00012378791004745204
aa(lp4101
S'respect'
p4102
aF0.0003301010934598721
aa(lp4103
S'centr'
p4104
aF4.126263668248401e-05
aa(lp4105
S'architect'
p4106
aF4.126263668248401e-05
aa(lp4107
S'land'
p4108
aF8.252527336496802e-05
aa(lp4109
S'center'
p4110
aF0.00016505054672993604
aa(lp4111
S'carlen'
p4112
aF4.126263668248401e-05
aa(lp4113
S'impair'
p4114
aF4.126263668248401e-05
aa(lp4115
S'boom-box'
p4116
aF4.126263668248401e-05
aa(lp4117
S'ten'
p4118
aF8.252527336496802e-05
aa(lp4119
S'impact'
p4120
aF0.0002475758200949041
aa(lp4121
S'connect'
p4122
aF0.0002475758200949041
aa(lp4123
S'big-budget'
p4124
aF4.126263668248401e-05
aa(lp4125
S'soundtrack'
p4126
aF0.00012378791004745204
aa(lp4127
S'dynam'
p4128
aF0.00012378791004745204
aa(lp4129
S'lifetim'
p4130
aF0.00012378791004745204
aa(lp4131
S'advic'
p4132
aF8.252527336496802e-05
aa(lp4133
S'inoffens'
p4134
aF0.00012378791004745204
aa(lp4135
S'connect'
p4136
aF0.0002475758200949041
aa(lp4137
S'out-depress'
p4138
aF4.126263668248401e-05
aa(lp4139
S'bone'
p4140
aF8.252527336496802e-05
aa(lp4141
S'labour'
p4142
aF4.126263668248401e-05
aa(lp4143
S'health'
p4144
aF4.126263668248401e-05
aa(lp4145
S'verg'
p4146
aF8.252527336496802e-05
aa(lp4147
S'turmoil'
p4148
aF4.126263668248401e-05
aa(lp4149
S'enemi'
p4150
aF8.252527336496802e-05
aa(lp4151
S'penalti'
p4152
aF4.126263668248401e-05
aa(lp4153
S'diminish'
p4154
aF4.126263668248401e-05
aa(lp4155
S'sight'
p4156
aF0.00016505054672993604
aa(lp4157
S'wife'
p4158
aF0.00016505054672993604
aa(lp4159
S'earn'
p4160
aF0.00012378791004745204
aa(lp4161
S'draw'
p4162
aF0.00016505054672993604
aa(lp4163
S'exclus'
p4164
aF4.126263668248401e-05
aa(lp4165
S'widowmak'
p4166
aF4.126263668248401e-05
aa(lp4167
S'sidesplit'
p4168
aF4.126263668248401e-05
aa(lp4169
S'tasteless'
p4170
aF4.126263668248401e-05
aa(lp4171
S'constantli'
p4172
aF8.252527336496802e-05
aa(lp4173
S'line'
p4174
aF0.0003713637301423561
aa(lp4175
S'heart-rate-rais'
p4176
aF4.126263668248401e-05
aa(lp4177
S'wordi'
p4178
aF4.126263668248401e-05
aa(lp4179
S'narcissist'
p4180
aF4.126263668248401e-05
aa(lp4181
S'extravaganza'
p4182
aF0.00012378791004745204
aa(lp4183
S'explain'
p4184
aF0.00016505054672993604
aa(lp4185
S'warn'
p4186
aF0.00012378791004745204
aa(lp4187
S'shortag'
p4188
aF4.126263668248401e-05
aa(lp4189
S'compliment'
p4190
aF4.126263668248401e-05
aa(lp4191
S'penanc'
p4192
aF4.126263668248401e-05
aa(lp4193
S'longtim'
p4194
aF4.126263668248401e-05
aa(lp4195
S'recal'
p4196
aF8.252527336496802e-05
aa(lp4197
S'teen-pop'
p4198
aF4.126263668248401e-05
aa(lp4199
S'argu'
p4200
aF0.00012378791004745204
aa(lp4201
S'bizarr'
p4202
aF0.00016505054672993604
aa(lp4203
S'self-help'
p4204
aF4.126263668248401e-05
aa(lp4205
S'weekend'
p4206
aF8.252527336496802e-05
aa(lp4207
S'rose-color'
p4208
aF8.252527336496802e-05
aa(lp4209
S'terrier'
p4210
aF4.126263668248401e-05
aa(lp4211
S'caus'
p4212
aF0.00016505054672993604
aa(lp4213
S'disgrac'
p4214
aF4.126263668248401e-05
aa(lp4215
S'belov'
p4216
aF4.126263668248401e-05
aa(lp4217
S'puppet'
p4218
aF8.252527336496802e-05
aa(lp4219
S'orang'
p4220
aF4.126263668248401e-05
aa(lp4221
S'abstract'
p4222
aF0.00012378791004745204
aa(lp4223
S'despairingli'
p4224
aF4.126263668248401e-05
aa(lp4225
S'confound'
p4226
aF8.252527336496802e-05
aa(lp4227
S'quintessenti'
p4228
aF8.252527336496802e-05
aa(lp4229
S'common'
p4230
aF0.00012378791004745204
aa(lp4231
S'grub'
p4232
aF4.126263668248401e-05
aa(lp4233
S'undemand'
p4234
aF4.126263668248401e-05
aa(lp4235
S'abrupt'
p4236
aF4.126263668248401e-05
aa(lp4237
S'armenian'
p4238
aF4.126263668248401e-05
aa(lp4239
S'activist'
p4240
aF4.126263668248401e-05
aa(lp4241
S'circl'
p4242
aF8.252527336496802e-05
aa(lp4243
S'recov'
p4244
aF8.252527336496802e-05
aa(lp4245
S'bettani'
p4246
aF4.126263668248401e-05
aa(lp4247
S'latin'
p4248
aF8.252527336496802e-05
aa(lp4249
S'c.i.'
p4250
aF4.126263668248401e-05
aa(lp4251
S'luvvi'
p4252
aF4.126263668248401e-05
aa(lp4253
S'clash'
p4254
aF8.252527336496802e-05
aa(lp4255
S'outweigh'
p4256
aF4.126263668248401e-05
aa(lp4257
S'plough'
p4258
aF4.126263668248401e-05
aa(lp4259
S'digress'
p4260
aF4.126263668248401e-05
aa(lp4261
S'imaxi'
p4262
aF4.126263668248401e-05
aa(lp4263
S'distract'
p4264
aF0.00012378791004745204
aa(lp4265
S'cardellini'
p4266
aF4.126263668248401e-05
aa(lp4267
S'distract'
p4268
aF0.00012378791004745204
aa(lp4269
S'nineti'
p4270
aF8.252527336496802e-05
aa(lp4271
S'bastard'
p4272
aF8.252527336496802e-05
aa(lp4273
S'conspicu'
p4274
aF4.126263668248401e-05
aa(lp4275
S'russo'
p4276
aF4.126263668248401e-05
aa(lp4277
S'averag'
p4278
aF0.00016505054672993604
aa(lp4279
S'layer'
p4280
aF0.00016505054672993604
aa(lp4281
S'cartoon'
p4282
aF0.0003301010934598721
aa(lp4283
S'gossip'
p4284
aF8.252527336496802e-05
aa(lp4285
S'chillingli'
p4286
aF4.126263668248401e-05
aa(lp4287
S'tougher'
p4288
aF4.126263668248401e-05
aa(lp4289
S'disturb'
p4290
aF0.0002475758200949041
aa(lp4291
S'roller-coast'
p4292
aF4.126263668248401e-05
aa(lp4293
S'ad'
p4294
aF8.252527336496802e-05
aa(lp4295
S'prove'
p4296
aF0.0003713637301423561
aa(lp4297
S'headi'
p4298
aF8.252527336496802e-05
aa(lp4299
S'gold'
p4300
aF4.126263668248401e-05
aa(lp4301
S'vagina'
p4302
aF4.126263668248401e-05
aa(lp4303
S'tact'
p4304
aF8.252527336496802e-05
aa(lp4305
S'electr'
p4306
aF8.252527336496802e-05
aa(lp4307
S'dench'
p4308
aF4.126263668248401e-05
aa(lp4309
S'grub'
p4310
aF4.126263668248401e-05
aa(lp4311
S'two-fifth'
p4312
aF4.126263668248401e-05
aa(lp4313
S'ingredi'
p4314
aF4.126263668248401e-05
aa(lp4315
S'gore'
p4316
aF8.252527336496802e-05
aa(lp4317
S'siev'
p4318
aF4.126263668248401e-05
aa(lp4319
S'distort'
p4320
aF4.126263668248401e-05
aa(lp4321
S'goth'
p4322
aF4.126263668248401e-05
aa(lp4323
S'introduc'
p4324
aF8.252527336496802e-05
aa(lp4325
S'prelud'
p4326
aF4.126263668248401e-05
aa(lp4327
S'institution'
p4328
aF4.126263668248401e-05
aa(lp4329
S'rock-n-rol'
p4330
aF4.126263668248401e-05
aa(lp4331
S'admir'
p4332
aF0.0003301010934598721
aa(lp4333
S'hijack'
p4334
aF4.126263668248401e-05
aa(lp4335
S'quick-cut'
p4336
aF4.126263668248401e-05
aa(lp4337
S'heap'
p4338
aF4.126263668248401e-05
aa(lp4339
S'favour'
p4340
aF4.126263668248401e-05
aa(lp4341
S'rework'
p4342
aF8.252527336496802e-05
aa(lp4343
S'chick'
p4344
aF8.252527336496802e-05
aa(lp4345
S'reno'
p4346
aF0.00020631318341242006
aa(lp4347
S'murder'
p4348
aF0.0002888384567773881
aa(lp4349
S'white-on-black'
p4350
aF4.126263668248401e-05
aa(lp4351
S'spin'
p4352
aF0.00016505054672993604
aa(lp4353
S'labor'
p4354
aF0.00012378791004745204
aa(lp4355
S'len'
p4356
aF4.126263668248401e-05
aa(lp4357
S'raini'
p4358
aF4.126263668248401e-05
aa(lp4359
S'exist'
p4360
aF0.0002475758200949041
aa(lp4361
S'hous'
p4362
aF0.0002888384567773881
aa(lp4363
S'commit'
p4364
aF8.252527336496802e-05
aa(lp4365
S'domin'
p4366
aF0.0002475758200949041
aa(lp4367
S'sometim'
p4368
aF0.0004538890035073241
aa(lp4369
S'kang'
p4370
aF4.126263668248401e-05
aa(lp4371
S'clash'
p4372
aF8.252527336496802e-05
aa(lp4373
S'checklist'
p4374
aF0.00012378791004745204
aa(lp4375
S'extravaganza'
p4376
aF0.00012378791004745204
aa(lp4377
S'domin'
p4378
aF0.0002475758200949041
aa(lp4379
S'crazi'
p4380
aF0.00020631318341242006
aa(lp4381
S'custom'
p4382
aF4.126263668248401e-05
aa(lp4383
S'ambros'
p4384
aF4.126263668248401e-05
aa(lp4385
S'spend'
p4386
aF0.00016505054672993604
aa(lp4387
S'artefact'
p4388
aF4.126263668248401e-05
aa(lp4389
S'spew'
p4390
aF4.126263668248401e-05
aa(lp4391
S'tori'
p4392
aF4.126263668248401e-05
aa(lp4393
S'veteran'
p4394
aF0.00012378791004745204
aa(lp4395
S'toro'
p4396
aF4.126263668248401e-05
aa(lp4397
S'abhorr'
p4398
aF4.126263668248401e-05
aa(lp4399
S'presum'
p4400
aF4.126263668248401e-05
aa(lp4401
S'tout'
p4402
aF0.00020631318341242006
aa(lp4403
S'crispli'
p4404
aF4.126263668248401e-05
aa(lp4405
S'finish'
p4406
aF0.0002475758200949041
aa(lp4407
S'undernourish'
p4408
aF4.126263668248401e-05
aa(lp4409
S'sonnenfeld'
p4410
aF4.126263668248401e-05
aa(lp4411
S'megalomaniac'
p4412
aF4.126263668248401e-05
aa(lp4413
S'picnic'
p4414
aF4.126263668248401e-05
aa(lp4415
S'humdrum'
p4416
aF4.126263668248401e-05
aa(lp4417
S'element'
p4418
aF0.0003301010934598721
aa(lp4419
S'stranger'
p4420
aF8.252527336496802e-05
aa(lp4421
S'shaken'
p4422
aF4.126263668248401e-05
aa(lp4423
S'devis'
p4424
aF4.126263668248401e-05
aa(lp4425
S'broom'
p4426
aF4.126263668248401e-05
aa(lp4427
S'shop'
p4428
aF4.126263668248401e-05
aa(lp4429
S'denizen'
p4430
aF4.126263668248401e-05
aa(lp4431
S'reveng'
p4432
aF0.00016505054672993604
aa(lp4433
S'excess'
p4434
aF0.00016505054672993604
aa(lp4435
S'nicola'
p4436
aF4.126263668248401e-05
aa(lp4437
S'ingredi'
p4438
aF4.126263668248401e-05
aa(lp4439
S'justifi'
p4440
aF0.00016505054672993604
aa(lp4441
S'hide-and-seek'
p4442
aF4.126263668248401e-05
aa(lp4443
S'fenc'
p4444
aF8.252527336496802e-05
aa(lp4445
S'superflu'
p4446
aF4.126263668248401e-05
aa(lp4447
S'parodi'
p4448
aF0.00012378791004745204
aa(lp4449
S'forbear'
p4450
aF4.126263668248401e-05
aa(lp4451
S'justic'
p4452
aF0.00012378791004745204
aa(lp4453
S'classic'
p4454
aF0.0004126263668248401
aa(lp4455
S'feral'
p4456
aF4.126263668248401e-05
aa(lp4457
S'norm'
p4458
aF4.126263668248401e-05
aa(lp4459
S'social'
p4460
aF0.0002888384567773881
aa(lp4461
S'underventil'
p4462
aF4.126263668248401e-05
aa(lp4463
S'antiqu'
p4464
aF4.126263668248401e-05
aa(lp4465
S'penn'
p4466
aF4.126263668248401e-05
aa(lp4467
S'fiction'
p4468
aF0.00016505054672993604
aa(lp4469
S'disappear'
p4470
aF4.126263668248401e-05
aa(lp4471
S'cremast'
p4472
aF4.126263668248401e-05
aa(lp4473
S'bathtub'
p4474
aF4.126263668248401e-05
aa(lp4475
S'bore-athon'
p4476
aF4.126263668248401e-05
aa(lp4477
S'restor'
p4478
aF4.126263668248401e-05
aa(lp4479
S'circl'
p4480
aF8.252527336496802e-05
aa(lp4481
S'femin'
p4482
aF8.252527336496802e-05
aa(lp4483
S'loyal'
p4484
aF4.126263668248401e-05
aa(lp4485
S'barrel'
p4486
aF8.252527336496802e-05
aa(lp4487
S'danger'
p4488
aF0.00016505054672993604
aa(lp4489
S'freudian'
p4490
aF4.126263668248401e-05
aa(lp4491
S'bacon'
p4492
aF8.252527336496802e-05
aa(lp4493
S'thou'
p4494
aF4.126263668248401e-05
aa(lp4495
S'intriguingli'
p4496
aF4.126263668248401e-05
aa(lp4497
S'dysfunct'
p4498
aF0.00016505054672993604
aa(lp4499
S'guy'
p4500
aF0.0005364142768722922
aa(lp4501
S'elsewher'
p4502
aF4.126263668248401e-05
aa(lp4503
S'pen'
p4504
aF4.126263668248401e-05
aa(lp4505
S'bubbl'
p4506
aF4.126263668248401e-05
aa(lp4507
S'grumpi'
p4508
aF4.126263668248401e-05
aa(lp4509
S'chair'
p4510
aF4.126263668248401e-05
aa(lp4511
S'chain'
p4512
aF4.126263668248401e-05
aa(lp4513
S'queen'
p4514
aF0.0002475758200949041
aa(lp4515
S'goodwil'
p4516
aF4.126263668248401e-05
aa(lp4517
S'obstacl'
p4518
aF0.00012378791004745204
aa(lp4519
S'veggi'
p4520
aF4.126263668248401e-05
aa(lp4521
S'thick'
p4522
aF8.252527336496802e-05
aa(lp4523
S'inexor'
p4524
aF4.126263668248401e-05
aa(lp4525
S'everyman'
p4526
aF4.126263668248401e-05
aa(lp4527
S'socio-polit'
p4528
aF4.126263668248401e-05
aa(lp4529
S'workaday'
p4530
aF4.126263668248401e-05
aa(lp4531
S'handicap'
p4532
aF4.126263668248401e-05
aa(lp4533
S'hood'
p4534
aF4.126263668248401e-05
aa(lp4535
S'branagh'
p4536
aF4.126263668248401e-05
aa(lp4537
S'wrap'
p4538
aF0.00016505054672993604
aa(lp4539
S'screw'
p4540
aF4.126263668248401e-05
aa(lp4541
S'undercov'
p4542
aF8.252527336496802e-05
aa(lp4543
S'buck'
p4544
aF8.252527336496802e-05
aa(lp4545
S'dollar'
p4546
aF4.126263668248401e-05
aa(lp4547
S'mild-mann'
p4548
aF4.126263668248401e-05
aa(lp4549
S'heap'
p4550
aF4.126263668248401e-05
aa(lp4551
S'philadelphia'
p4552
aF4.126263668248401e-05
aa(lp4553
S'clone-gag'
p4554
aF4.126263668248401e-05
aa(lp4555
S'barrier'
p4556
aF4.126263668248401e-05
aa(lp4557
S'hook'
p4558
aF8.252527336496802e-05
aa(lp4559
S'show-don'
p4560
aF4.126263668248401e-05
aa(lp4561
S'cuss'
p4562
aF4.126263668248401e-05
aa(lp4563
S'intent'
p4564
aF0.0003713637301423561
aa(lp4565
S'bald'
p4566
aF4.126263668248401e-05
aa(lp4567
S'surround'
p4568
aF0.00012378791004745204
aa(lp4569
S'surviv'
p4570
aF0.00016505054672993604
aa(lp4571
S'dynam'
p4572
aF0.00012378791004745204
aa(lp4573
S'viciou'
p4574
aF4.126263668248401e-05
aa(lp4575
S'jean-claud'
p4576
aF4.126263668248401e-05
aa(lp4577
S'stuf'
p4578
aF8.252527336496802e-05
aa(lp4579
S'seduct'
p4580
aF0.00012378791004745204
aa(lp4581
S'bewild'
p4582
aF8.252527336496802e-05
aa(lp4583
S'uneas'
p4584
aF4.126263668248401e-05
aa(lp4585
S'uneasi'
p4586
aF8.252527336496802e-05
aa(lp4587
S'stamina'
p4588
aF4.126263668248401e-05
aa(lp4589
S'date'
p4590
aF0.0002888384567773881
aa(lp4591
S'southern'
p4592
aF8.252527336496802e-05
aa(lp4593
S'distract'
p4594
aF0.00012378791004745204
aa(lp4595
S'after-school'
p4596
aF8.252527336496802e-05
aa(lp4597
S'dynam'
p4598
aF0.00012378791004745204
aa(lp4599
S'date'
p4600
aF0.0002888384567773881
aa(lp4601
S'intent'
p4602
aF0.0003713637301423561
aa(lp4603
S'widget'
p4604
aF4.126263668248401e-05
aa(lp4605
S'beard'
p4606
aF4.126263668248401e-05
aa(lp4607
S'hyperbol'
p4608
aF4.126263668248401e-05
aa(lp4609
S'overal'
p4610
aF0.0003301010934598721
aa(lp4611
S'deterior'
p4612
aF8.252527336496802e-05
aa(lp4613
S'not'
p4614
aF0.005364142768722922
aa(lp4615
S'afloat'
p4616
aF4.126263668248401e-05
aa(lp4617
S'amiabl'
p4618
aF8.252527336496802e-05
aa(lp4619
S'annie-mari'
p4620
aF4.126263668248401e-05
aa(lp4621
S'baloney'
p4622
aF4.126263668248401e-05
aa(lp4623
S'spald'
p4624
aF4.126263668248401e-05
aa(lp4625
S'clean'
p4626
aF0.00012378791004745204
aa(lp4627
S'yorker'
p4628
aF8.252527336496802e-05
aa(lp4629
S'implaus'
p4630
aF8.252527336496802e-05
aa(lp4631
S'steam'
p4632
aF4.126263668248401e-05
aa(lp4633
S'self-reflect'
p4634
aF4.126263668248401e-05
aa(lp4635
S'inevit'
p4636
aF8.252527336496802e-05
aa(lp4637
S'jean-luc'
p4638
aF4.126263668248401e-05
aa(lp4639
S'inevit'
p4640
aF8.252527336496802e-05
aa(lp4641
S'grandios'
p4642
aF8.252527336496802e-05
aa(lp4643
S'laugh-out-loud'
p4644
aF8.252527336496802e-05
aa(lp4645
S'news'
p4646
aF8.252527336496802e-05
aa(lp4647
S'explan'
p4648
aF4.126263668248401e-05
aa(lp4649
S'sacr'
p4650
aF4.126263668248401e-05
aa(lp4651
S'aaliyah'
p4652
aF4.126263668248401e-05
aa(lp4653
S'senegales'
p4654
aF4.126263668248401e-05
aa(lp4655
S'exist'
p4656
aF0.0002475758200949041
aa(lp4657
S'free'
p4658
aF0.00016505054672993604
aa(lp4659
S'send'
p4660
aF0.00012378791004745204
aa(lp4661
S'best-foreign-film'
p4662
aF4.126263668248401e-05
aa(lp4663
S'not-b'
p4664
aF4.126263668248401e-05
aa(lp4665
S'wollter'
p4666
aF4.126263668248401e-05
aa(lp4667
S'singularli'
p4668
aF4.126263668248401e-05
aa(lp4669
S'brow'
p4670
aF4.126263668248401e-05
aa(lp4671
S'origin'
p4672
aF0.0008252527336496802
aa(lp4673
S'ring'
p4674
aF0.00016505054672993604
aa(lp4675
S'clayburgh'
p4676
aF8.252527336496802e-05
aa(lp4677
S'unfamiliar'
p4678
aF8.252527336496802e-05
aa(lp4679
S'rocky-lik'
p4680
aF4.126263668248401e-05
aa(lp4681
S'internet'
p4682
aF8.252527336496802e-05
aa(lp4683
S'seduc'
p4684
aF8.252527336496802e-05
aa(lp4685
S'worn-out'
p4686
aF4.126263668248401e-05
aa(lp4687
S'saeko'
p4688
aF4.126263668248401e-05
aa(lp4689
S'afflict'
p4690
aF4.126263668248401e-05
aa(lp4691
S'lint'
p4692
aF4.126263668248401e-05
aa(lp4693
S'militari'
p4694
aF4.126263668248401e-05
aa(lp4695
S'happi'
p4696
aF0.0002475758200949041
aa(lp4697
S'envelop'
p4698
aF4.126263668248401e-05
aa(lp4699
S'list'
p4700
aF8.252527336496802e-05
aa(lp4701
S'spin'
p4702
aF0.00016505054672993604
aa(lp4703
S'chew'
p4704
aF8.252527336496802e-05
aa(lp4705
S'silent'
p4706
aF0.00016505054672993604
aa(lp4707
S'nuanc'
p4708
aF0.00020631318341242006
aa(lp4709
S'earn'
p4710
aF0.00012378791004745204
aa(lp4711
S'bedknob'
p4712
aF4.126263668248401e-05
aa(lp4713
S'mainten'
p4714
aF4.126263668248401e-05
aa(lp4715
S'physic'
p4716
aF0.00020631318341242006
aa(lp4717
S'exist'
p4718
aF0.0002475758200949041
aa(lp4719
S'rice'
p4720
aF0.00012378791004745204
aa(lp4721
S'indulg'
p4722
aF0.00012378791004745204
aa(lp4723
S'brew'
p4724
aF4.126263668248401e-05
aa(lp4725
S'fenc'
p4726
aF8.252527336496802e-05
aa(lp4727
S'reaction'
p4728
aF4.126263668248401e-05
aa(lp4729
S'version'
p4730
aF0.0004951516401898082
aa(lp4731
S'shout'
p4732
aF8.252527336496802e-05
aa(lp4733
S'amo'
p4734
aF4.126263668248401e-05
aa(lp4735
S'rag-tag'
p4736
aF4.126263668248401e-05
aa(lp4737
S'reactiv'
p4738
aF4.126263668248401e-05
aa(lp4739
S'ricochet'
p4740
aF8.252527336496802e-05
aa.