(lp0
(lp1
S''
p2
aI0
aa(lp3
S'possibl'
p4
aF0.0007745010425975573
aa(lp5
S'hyper-r'
p6
aF5.957700327673518e-05
aa(lp7
S'all-mal'
p8
aF0.0
aa(lp9
S'foreshadow'
p10
aF0.0
aa(lp11
S'advis'
p12
aF0.0
aa(lp13
S'time'
p14
aF0.002025618111408996
aa(lp15
S'grotesqu'
p16
aF0.00011915400655347036
aa(lp17
S'whiff'
p18
aF5.957700327673518e-05
aa(lp19
S'advis'
p20
aF0.0
aa(lp21
S'timid'
p22
aF5.957700327673518e-05
aa(lp23
S'muck'
p24
aF5.957700327673518e-05
aa(lp25
S'trifecta'
p26
aF5.957700327673518e-05
aa(lp27
S'rewrit'
p28
aF5.957700327673518e-05
aa(lp29
S'hearst'
p30
aF0.0
aa(lp31
S'mush'
p32
aF5.957700327673518e-05
aa(lp33
S'unintend'
p34
aF5.957700327673518e-05
aa(lp35
S'fine-look'
p36
aF0.0
aa(lp37
S'opt'
p38
aF0.00011915400655347036
aa(lp39
S'singl'
p40
aF0.00047661602621388145
aa(lp41
S'whine'
p42
aF5.957700327673518e-05
aa(lp43
S'vain'
p44
aF0.00011915400655347036
aa(lp45
S'flail'
p46
aF0.00011915400655347036
aa(lp47
S'throwback'
p48
aF5.957700327673518e-05
aa(lp49
S'needlessli'
p50
aF5.957700327673518e-05
aa(lp51
S'pervas'
p52
aF5.957700327673518e-05
aa(lp53
S'scientif'
p54
aF5.957700327673518e-05
aa(lp55
S'well-put-togeth'
p56
aF0.0
aa(lp57
S'alchem'
p58
aF0.0
aa(lp59
S'glass-shatt'
p60
aF5.957700327673518e-05
aa(lp61
S'sieg'
p62
aF5.957700327673518e-05
aa(lp63
S'asphalt'
p64
aF0.0
aa(lp65
S'setpiec'
p66
aF5.957700327673518e-05
aa(lp67
S'graduat'
p68
aF5.957700327673518e-05
aa(lp69
S'build'
p70
aF0.00017873100983020553
aa(lp71
S'gulpilil'
p72
aF0.0
aa(lp73
S'lull'
p74
aF5.957700327673518e-05
aa(lp75
S'melancholia'
p76
aF0.0
aa(lp77
S'backdrop'
p78
aF5.957700327673518e-05
aa(lp79
S'eve'
p80
aF0.0
aa(lp81
S'sooth'
p82
aF5.957700327673518e-05
aa(lp83
S'unlik'
p84
aF0.0002978850163836759
aa(lp85
S'atroci'
p86
aF0.00011915400655347036
aa(lp87
S'clive'
p88
aF5.957700327673518e-05
aa(lp89
S'zero'
p90
aF0.00011915400655347036
aa(lp91
S'spawn'
p92
aF5.957700327673518e-05
aa(lp93
S'yourself'
p94
aF0.00017873100983020553
aa(lp95
S'contour'
p96
aF0.0
aa(lp97
S'oper'
p98
aF5.957700327673518e-05
aa(lp99
S'surf'
p100
aF5.957700327673518e-05
aa(lp101
S'barn-sid'
p102
aF0.0
aa(lp103
S'bump'
p104
aF5.957700327673518e-05
aa(lp105
S'convolut'
p106
aF0.00011915400655347036
aa(lp107
S'ridley'
p108
aF0.0
aa(lp109
S'inan'
p110
aF0.00011915400655347036
aa(lp111
S'marivaux'
p112
aF0.0
aa(lp113
S'target'
p114
aF0.0002978850163836759
aa(lp115
S'thumb'
p116
aF0.00011915400655347036
aa(lp117
S'err'
p118
aF0.0
aa(lp119
S'overly-familiar'
p120
aF5.957700327673518e-05
aa(lp121
S'disappoint'
p122
aF0.00047661602621388145
aa(lp123
S'blare'
p124
aF0.0
aa(lp125
S'patch'
p126
aF5.957700327673518e-05
aa(lp127
S'weigh'
p128
aF5.957700327673518e-05
aa(lp129
S'hottest'
p130
aF0.0
aa(lp131
S'whatsoev'
p132
aF0.00011915400655347036
aa(lp133
S'edit'
p134
aF0.0004170390229371463
aa(lp135
S'stodgi'
p136
aF5.957700327673518e-05
aa(lp137
S'violent'
p138
aF0.00017873100983020553
aa(lp139
S'edit'
p140
aF0.0004170390229371463
aa(lp141
S'script'
p142
aF0.0013702710753649091
aa(lp143
S'i.q'
p144
aF0.0
aa(lp145
S'compris'
p146
aF0.0
aa(lp147
S'three-minut'
p148
aF5.957700327673518e-05
aa(lp149
S'voyeurist'
p150
aF5.957700327673518e-05
aa(lp151
S'vaunt'
p152
aF5.957700327673518e-05
aa(lp153
S'dough'
p154
aF5.957700327673518e-05
aa(lp155
S'gordi'
p156
aF0.0
aa(lp157
S'summer-camp'
p158
aF0.0
aa(lp159
S'pointless'
p160
aF0.0002978850163836759
aa(lp161
S'jockey'
p162
aF0.0
aa(lp163
S"'m"
p164
aF0.00047661602621388145
aa(lp165
S'.e'
p166
aF0.0
aa(lp167
S'doubt'
p168
aF0.00017873100983020553
aa(lp169
S'suck'
p170
aF0.00011915400655347036
aa(lp171
S'burn'
p172
aF0.00017873100983020553
aa(lp173
S'induc'
p174
aF5.957700327673518e-05
aa(lp175
S'hot-blood'
p176
aF0.0
aa(lp177
S'--'
p178
aF0.0038129282097110516
aa(lp179
S'english-languag'
p180
aF5.957700327673518e-05
aa(lp181
S'redeem'
p182
aF0.00011915400655347036
aa(lp183
S'40'
p184
aF0.00011915400655347036
aa(lp185
S'opportun'
p186
aF0.00035746201966041106
aa(lp187
S'25'
p188
aF5.957700327673518e-05
aa(lp189
S'30'
p190
aF0.00017873100983020553
aa(lp191
S'crime'
p192
aF0.0005361930294906167
aa(lp193
S'tortur'
p194
aF0.00023830801310694073
aa(lp195
S'18'
p196
aF0.0
aa(lp197
S'11'
p198
aF0.00011915400655347036
aa(lp199
S'20'
p200
aF0.00011915400655347036
aa(lp201
S'pokemon'
p202
aF5.957700327673518e-05
aa(lp203
S'10'
p204
aF0.00011915400655347036
aa(lp205
S'plot'
p206
aF0.0016681560917485851
aa(lp207
S'86'
p208
aF5.957700327673518e-05
aa(lp209
S'87'
p210
aF5.957700327673518e-05
aa(lp211
S'84'
p212
aF5.957700327673518e-05
aa(lp213
S'seldhal'
p214
aF0.0
aa(lp215
S'71'
p216
aF5.957700327673518e-05
aa(lp217
S'cri'
p218
aF0.00011915400655347036
aa(lp219
S'60'
p220
aF5.957700327673518e-05
aa(lp221
S'ill-inform'
p222
aF0.0
aa(lp223
S'sailor'
p224
aF0.0
aa(lp225
S'unamus'
p226
aF5.957700327673518e-05
aa(lp227
S'inconsequenti'
p228
aF0.00011915400655347036
aa(lp229
S'steal'
p230
aF0.00023830801310694073
aa(lp231
S'93'
p232
aF0.0
aa(lp233
S'90'
p234
aF0.00035746201966041106
aa(lp235
S'resoundingli'
p236
aF0.0
aa(lp237
S'feel'
p238
aF0.002085195114685731
aa(lp239
S'stop'
p240
aF0.00023830801310694073
aa(lp241
S'cun'
p242
aF0.0
aa(lp243
S'screenwrit'
p244
aF0.0005361930294906167
aa(lp245
S'orgi'
p246
aF0.0
aa(lp247
S'depressingli'
p248
aF0.00011915400655347036
aa(lp249
S'hook-up'
p250
aF0.0
aa(lp251
S'dv'
p252
aF5.957700327673518e-05
aa(lp253
S'permeat'
p254
aF5.957700327673518e-05
aa(lp255
S'softli'
p256
aF0.0
aa(lp257
S'annoy'
p258
aF0.00023830801310694073
aa(lp259
S'damn'
p260
aF0.0002978850163836759
aa(lp261
S'mayhem'
p262
aF0.00011915400655347036
aa(lp263
S'el'
p264
aF5.957700327673518e-05
aa(lp265
S'eardrum-d'
p266
aF5.957700327673518e-05
aa(lp267
S'fate'
p268
aF0.00011915400655347036
aa(lp269
S'ba'
p270
aF0.0
aa(lp271
S'tumblewe'
p272
aF5.957700327673518e-05
aa(lp273
S'storylin'
p274
aF0.00011915400655347036
aa(lp275
S'ca'
p276
aF0.0009532320524277629
aa(lp277
S'every-joke-ha'
p278
aF5.957700327673518e-05
aa(lp279
S'd.'
p280
aF0.0
aa(lp281
S'motionless'
p282
aF5.957700327673518e-05
aa(lp283
S'm.'
p284
aF5.957700327673518e-05
aa(lp285
S'll'
p286
aF0.0
aa(lp287
S'anem'
p288
aF5.957700327673518e-05
aa(lp289
S'feminin'
p290
aF0.0
aa(lp291
S'na'
p292
aF5.957700327673518e-05
aa(lp293
S'dread'
p294
aF0.00017873100983020553
aa(lp295
S'sign'
p296
aF0.0004170390229371463
aa(lp297
S'well-contruct'
p298
aF0.0
aa(lp299
S'conceiv'
p300
aF0.00011915400655347036
aa(lp301
S'elicit'
p302
aF5.957700327673518e-05
aa(lp303
S'iq'
p304
aF5.957700327673518e-05
aa(lp305
S'predominantli'
p306
aF5.957700327673518e-05
aa(lp307
S'own'
p308
aF0.0010723860589812334
aa(lp309
S'sacrif'
p310
aF5.957700327673518e-05
aa(lp311
S'effect'
p312
aF0.000655347036044087
aa(lp313
S'19th-centuri'
p314
aF5.957700327673518e-05
aa(lp315
S'witless'
p316
aF0.00011915400655347036
aa(lp317
S'aw'
p318
aF0.00035746201966041106
aa(lp319
S'un'
p320
aF0.0
aa(lp321
S'soliloqui'
p322
aF5.957700327673518e-05
aa(lp323
S'hen'
p324
aF0.0
aa(lp325
S'vs'
p326
aF0.0
aa(lp327
S'hour'
p328
aF0.0011319630622579685
aa(lp329
S'reckless'
p330
aF5.957700327673518e-05
aa(lp331
S'sara'
p332
aF0.00011915400655347036
aa(lp333
S'costar'
p334
aF0.0
aa(lp335
S'imagin'
p336
aF0.0007149240393208221
aa(lp337
S'hospit'
p338
aF5.957700327673518e-05
aa(lp339
S'possibl'
p340
aF0.0007745010425975573
aa(lp341
S'r.'
p342
aF5.957700327673518e-05
aa(lp343
S'bestow'
p344
aF5.957700327673518e-05
aa(lp345
S'u.'
p346
aF0.0
aa(lp347
S'characterist'
p348
aF5.957700327673518e-05
aa(lp349
S'intoler'
p350
aF5.957700327673518e-05
aa(lp351
S'total'
p352
aF0.0002978850163836759
aa(lp353
S'wal-mart'
p354
aF5.957700327673518e-05
aa(lp355
S'sabotag'
p356
aF5.957700327673518e-05
aa(lp357
S'total'
p358
aF0.0002978850163836759
aa(lp359
S'p.c.'
p360
aF0.0
aa(lp361
S'abort'
p362
aF0.0
aa(lp363
S'grandmoth'
p364
aF0.0
aa(lp365
S'lang'
p366
aF0.0
aa(lp367
S'refer'
p368
aF0.00017873100983020553
aa(lp369
S'fu'
p370
aF5.957700327673518e-05
aa(lp371
S'minac'
p372
aF0.0
aa(lp373
S'second-guess'
p374
aF5.957700327673518e-05
aa(lp375
S'indic'
p376
aF0.00011915400655347036
aa(lp377
S'di'
p378
aF0.0
aa(lp379
S'sade'
p380
aF0.00017873100983020553
aa(lp381
S'el'
p382
aF5.957700327673518e-05
aa(lp383
S'er'
p384
aF5.957700327673518e-05
aa(lp385
S'ca'
p386
aF0.0009532320524277629
aa(lp387
S'strut'
p388
aF5.957700327673518e-05
aa(lp389
S'decid'
p390
aF0.00017873100983020553
aa(lp391
S'unbalanc'
p392
aF0.0
aa(lp393
S'depress'
p394
aF0.0002978850163836759
aa(lp395
S'crap'
p396
aF0.00035746201966041106
aa(lp397
S'flimsi'
p398
aF0.00011915400655347036
aa(lp399
S'al'
p400
aF0.0
aa(lp401
S'mindless'
p402
aF0.0002978850163836759
aa(lp403
S'pasolini'
p404
aF5.957700327673518e-05
aa(lp405
S'mayb'
p406
aF0.00023830801310694073
aa(lp407
S'ream'
p408
aF5.957700327673518e-05
aa(lp409
S'zinger-fil'
p410
aF0.0
aa(lp411
S'plot-lin'
p412
aF0.0
aa(lp413
S'collect'
p414
aF0.00023830801310694073
aa(lp415
S'incessantli'
p416
aF5.957700327673518e-05
aa(lp417
S'yawner'
p418
aF5.957700327673518e-05
aa(lp419
S'rifkin'
p420
aF5.957700327673518e-05
aa(lp421
S'overproduc'
p422
aF5.957700327673518e-05
aa(lp423
S'avari'
p424
aF0.00011915400655347036
aa(lp425
S'ho'
p426
aF0.00011915400655347036
aa(lp427
S'tunnel'
p428
aF0.0
aa(lp429
S'dumb'
p430
aF0.0004170390229371463
aa(lp431
S'trailer-trash'
p432
aF5.957700327673518e-05
aa(lp433
S'self-consci'
p434
aF0.00017873100983020553
aa(lp435
S'spontan'
p436
aF5.957700327673518e-05
aa(lp437
S'swept'
p438
aF5.957700327673518e-05
aa(lp439
S'remak'
p440
aF0.0002978850163836759
aa(lp441
S'idioci'
p442
aF5.957700327673518e-05
aa(lp443
S'ladi'
p444
aF0.00011915400655347036
aa(lp445
S'reach'
p446
aF0.00017873100983020553
aa(lp447
S'bunch'
p448
aF0.0002978850163836759
aa(lp449
S'guis'
p450
aF5.957700327673518e-05
aa(lp451
S'vengeanc'
p452
aF0.0
aa(lp453
S'orgasm'
p454
aF0.0
aa(lp455
S'redeem'
p456
aF0.00011915400655347036
aa(lp457
S'firth'
p458
aF0.0
aa(lp459
S'review'
p460
aF0.00011915400655347036
aa(lp461
S'walker'
p462
aF5.957700327673518e-05
aa(lp463
S'decid'
p464
aF0.00017873100983020553
aa(lp465
S'farcic'
p466
aF5.957700327673518e-05
aa(lp467
S'dispos'
p468
aF0.00011915400655347036
aa(lp469
S'jersey'
p470
aF0.00011915400655347036
aa(lp471
S'hot'
p472
aF0.00017873100983020553
aa(lp473
S'ye'
p474
aF0.0002978850163836759
aa(lp475
S'refer'
p476
aF0.00017873100983020553
aa(lp477
S'superfici'
p478
aF0.0002978850163836759
aa(lp479
S'lower-class'
p480
aF5.957700327673518e-05
aa(lp481
S'undercut'
p482
aF0.00011915400655347036
aa(lp483
S'gore-fre'
p484
aF0.0
aa(lp485
S'ash'
p486
aF5.957700327673518e-05
aa(lp487
S'petri'
p488
aF0.0
aa(lp489
S'garner'
p490
aF5.957700327673518e-05
aa(lp491
S'lapel'
p492
aF0.0
aa(lp493
S'invad'
p494
aF0.0
aa(lp495
S'lack'
p496
aF0.0013702710753649091
aa(lp497
S'occas'
p498
aF0.0
aa(lp499
S'glee'
p500
aF5.957700327673518e-05
aa(lp501
S'highlight'
p502
aF0.00011915400655347036
aa(lp503
S'error'
p504
aF0.00011915400655347036
aa(lp505
S'mystic'
p506
aF5.957700327673518e-05
aa(lp507
S'painterli'
p508
aF0.0
aa(lp509
S'deckhand'
p510
aF0.0
aa(lp511
S'idiot'
p512
aF0.00023830801310694073
aa(lp513
S'doldrum'
p514
aF0.0
aa(lp515
S'hands-off'
p516
aF5.957700327673518e-05
aa(lp517
S'build'
p518
aF0.00017873100983020553
aa(lp519
S'clue'
p520
aF0.00011915400655347036
aa(lp521
S'stain'
p522
aF5.957700327673518e-05
aa(lp523
S'lack'
p524
aF0.0013702710753649091
aa(lp525
S'skittish'
p526
aF0.0
aa(lp527
S'bad'
p528
aF0.003693774203157581
aa(lp529
S'unintent'
p530
aF0.00017873100983020553
aa(lp531
S'exceedingli'
p532
aF5.957700327673518e-05
aa(lp533
S'retread'
p534
aF0.00023830801310694073
aa(lp535
S'pizazz'
p536
aF5.957700327673518e-05
aa(lp537
S'even'
p538
aF0.002561811140899613
aa(lp539
S'ultra-cheesi'
p540
aF5.957700327673518e-05
aa(lp541
S'\\/daughter'
p542
aF0.0
aa(lp543
S'dubiou'
p544
aF5.957700327673518e-05
aa(lp545
S'alter'
p546
aF5.957700327673518e-05
aa(lp547
S'ace'
p548
aF5.957700327673518e-05
aa(lp549
S'glum'
p550
aF0.00011915400655347036
aa(lp551
S'piss'
p552
aF5.957700327673518e-05
aa(lp553
S'interfaith'
p554
aF0.0
aa(lp555
S'wheezi'
p556
aF5.957700327673518e-05
aa(lp557
S'preciou'
p558
aF0.00011915400655347036
aa(lp559
S'cheap-shot'
p560
aF0.0
aa(lp561
S'effect'
p562
aF0.000655347036044087
aa(lp563
S'blutarski'
p564
aF0.0
aa(lp565
S'ago'
p566
aF0.00017873100983020553
aa(lp567
S'stoneheng'
p568
aF5.957700327673518e-05
aa(lp569
S'sacrific'
p570
aF5.957700327673518e-05
aa(lp571
S'repres'
p572
aF0.00017873100983020553
aa(lp573
S'soul-search'
p574
aF5.957700327673518e-05
aa(lp575
S'option'
p576
aF5.957700327673518e-05
aa(lp577
S'repres'
p578
aF0.00017873100983020553
aa(lp579
S'requiem'
p580
aF0.0
aa(lp581
S'stave'
p582
aF0.0
aa(lp583
S'uncouth'
p584
aF0.0
aa(lp585
S'credibl'
p586
aF0.00023830801310694073
aa(lp587
S'blubber'
p588
aF0.0
aa(lp589
S'dim-wit'
p590
aF0.00011915400655347036
aa(lp591
S'postapocalypt'
p592
aF0.0
aa(lp593
S'stagi'
p594
aF5.957700327673518e-05
aa(lp595
S'litter'
p596
aF5.957700327673518e-05
aa(lp597
S'imprint'
p598
aF5.957700327673518e-05
aa(lp599
S'blarney'
p600
aF5.957700327673518e-05
aa(lp601
S'stale'
p602
aF0.00023830801310694073
aa(lp603
S'shuck-and-j'
p604
aF0.0
aa(lp605
S'care'
p606
aF0.0007745010425975573
aa(lp607
S'misanthropi'
p608
aF0.0
aa(lp609
S'rollerbal'
p610
aF0.00011915400655347036
aa(lp611
S'fetid'
p612
aF0.0
aa(lp613
S'perpetr'
p614
aF5.957700327673518e-05
aa(lp615
S'denouement'
p616
aF5.957700327673518e-05
aa(lp617
S'rambl'
p618
aF0.00017873100983020553
aa(lp619
S'includ'
p620
aF0.00017873100983020553
aa(lp621
S'oper'
p622
aF5.957700327673518e-05
aa(lp623
S'hank'
p624
aF5.957700327673518e-05
aa(lp625
S'judd'
p626
aF5.957700327673518e-05
aa(lp627
S'sever'
p628
aF0.000655347036044087
aa(lp629
S'bother'
p630
aF0.00017873100983020553
aa(lp631
S'comparison'
p632
aF0.00023830801310694073
aa(lp633
S'fleshed-out'
p634
aF0.0
aa(lp635
S'cal'
p636
aF5.957700327673518e-05
aa(lp637
S'diss'
p638
aF5.957700327673518e-05
aa(lp639
S'serv'
p640
aF0.00035746201966041106
aa(lp641
S'swagger'
p642
aF0.0
aa(lp643
S'stagger'
p644
aF5.957700327673518e-05
aa(lp645
S'kiddi'
p646
aF5.957700327673518e-05
aa(lp647
S'oh-so'
p648
aF5.957700327673518e-05
aa(lp649
S'last-plac'
p650
aF5.957700327673518e-05
aa(lp651
S'affin'
p652
aF5.957700327673518e-05
aa(lp653
S'oper'
p654
aF5.957700327673518e-05
aa(lp655
S'citizen'
p656
aF0.0
aa(lp657
S'note'
p658
aF0.00017873100983020553
aa(lp659
S'fifteen-year-old'
p660
aF0.0
aa(lp661
S'mother-daught'
p662
aF0.0
aa(lp663
S'guilti'
p664
aF0.00011915400655347036
aa(lp665
S'proport'
p666
aF5.957700327673518e-05
aa(lp667
S'misfortun'
p668
aF5.957700327673518e-05
aa(lp669
S'brillianc'
p670
aF5.957700327673518e-05
aa(lp671
S'screwi'
p672
aF5.957700327673518e-05
aa(lp673
S'fire'
p674
aF0.0002978850163836759
aa(lp675
S'fast'
p676
aF0.00011915400655347036
aa(lp677
S'video'
p678
aF0.0007149240393208221
aa(lp679
S'larki'
p680
aF0.0
aa(lp681
S'pamela'
p682
aF0.0
aa(lp683
S'mimic'
p684
aF0.0
aa(lp685
S'below'
p686
aF0.00017873100983020553
aa(lp687
S'bilk'
p688
aF5.957700327673518e-05
aa(lp689
S'fail'
p690
aF0.0008340780458742926
aa(lp691
S'insult'
p692
aF0.0005361930294906167
aa(lp693
S'redeem'
p694
aF0.00011915400655347036
aa(lp695
S'creator'
p696
aF5.957700327673518e-05
aa(lp697
S'shapabl'
p698
aF5.957700327673518e-05
aa(lp699
S'coal'
p700
aF5.957700327673518e-05
aa(lp701
S'reason'
p702
aF0.0005957700327673518
aa(lp703
S'troubadour'
p704
aF0.0
aa(lp705
S'sequin'
p706
aF0.0
aa(lp707
S'porou'
p708
aF5.957700327673518e-05
aa(lp709
S'pledg'
p710
aF5.957700327673518e-05
aa(lp711
S'winger'
p712
aF0.0
aa(lp713
S'airless'
p714
aF5.957700327673518e-05
aa(lp715
S'hors'
p716
aF0.00011915400655347036
aa(lp717
S'\\/horror'
p718
aF0.0
aa(lp719
S'spear'
p720
aF0.00017873100983020553
aa(lp721
S'vex'
p722
aF0.0
aa(lp723
S'stroll'
p724
aF0.0
aa(lp725
S'bungl'
p726
aF5.957700327673518e-05
aa(lp727
S'uni-dimension'
p728
aF0.0
aa(lp729
S'stardom'
p730
aF5.957700327673518e-05
aa(lp731
S'adequ'
p732
aF0.00011915400655347036
aa(lp733
S'june'
p734
aF0.0
aa(lp735
S'narciss'
p736
aF5.957700327673518e-05
aa(lp737
S'qual'
p738
aF0.0
aa(lp739
S'groaner'
p740
aF5.957700327673518e-05
aa(lp741
S'scribe'
p742
aF5.957700327673518e-05
aa(lp743
S'corn'
p744
aF5.957700327673518e-05
aa(lp745
S'johnni'
p746
aF5.957700327673518e-05
aa(lp747
S'core'
p748
aF0.00017873100983020553
aa(lp749
S'cushion'
p750
aF5.957700327673518e-05
aa(lp751
S'rancor'
p752
aF0.0
aa(lp753
S'cri'
p754
aF0.00011915400655347036
aa(lp755
S'lumin'
p756
aF0.0
aa(lp757
S'simple-mind'
p758
aF5.957700327673518e-05
aa(lp759
S'dvd'
p760
aF5.957700327673518e-05
aa(lp761
S'doa'
p762
aF0.0
aa(lp763
S'goe'
p764
aF0.0004170390229371463
aa(lp765
S'fear'
p766
aF0.0004170390229371463
aa(lp767
S'attract'
p768
aF0.0002978850163836759
aa(lp769
S'sheet'
p770
aF5.957700327673518e-05
aa(lp771
S'com'
p772
aF5.957700327673518e-05
aa(lp773
S'spider'
p774
aF5.957700327673518e-05
aa(lp775
S'studio'
p776
aF0.0002978850163836759
aa(lp777
S'whiffle-bal'
p778
aF5.957700327673518e-05
aa(lp779
S'pari'
p780
aF0.0
aa(lp781
S'head'
p782
aF0.00047661602621388145
aa(lp783
S'disappoint'
p784
aF0.00047661602621388145
aa(lp785
S'genial-rogu'
p786
aF0.0
aa(lp787
S'iota'
p788
aF5.957700327673518e-05
aa(lp789
S'hastili'
p790
aF0.00023830801310694073
aa(lp791
S'archetyp'
p792
aF0.0
aa(lp793
S'caucasian'
p794
aF0.0
aa(lp795
S'wanna'
p796
aF0.0
aa(lp797
S'bludgeon'
p798
aF0.0
aa(lp799
S'resolut'
p800
aF0.00017873100983020553
aa(lp801
S'manifesto'
p802
aF0.00011915400655347036
aa(lp803
S'extermin'
p804
aF0.0
aa(lp805
S'sugarman'
p806
aF5.957700327673518e-05
aa(lp807
S'goos'
p808
aF5.957700327673518e-05
aa(lp809
S'neurosi'
p810
aF0.0
aa(lp811
S'exchang'
p812
aF0.0
aa(lp813
S'hunk'
p814
aF5.957700327673518e-05
aa(lp815
S'abandon'
p816
aF0.00017873100983020553
aa(lp817
S'die'
p818
aF0.00023830801310694073
aa(lp819
S'unencourag'
p820
aF0.0
aa(lp821
S'cross-sect'
p822
aF0.0
aa(lp823
S'self-absorb'
p824
aF5.957700327673518e-05
aa(lp825
S'hackney'
p826
aF0.00017873100983020553
aa(lp827
S'uncr'
p828
aF5.957700327673518e-05
aa(lp829
S'command'
p830
aF0.0
aa(lp831
S'exit'
p832
aF5.957700327673518e-05
aa(lp833
S'tire'
p834
aF0.00035746201966041106
aa(lp835
S'disgust'
p836
aF0.00023830801310694073
aa(lp837
S'mytholog'
p838
aF5.957700327673518e-05
aa(lp839
S'insultingli'
p840
aF5.957700327673518e-05
aa(lp841
S'eyelid'
p842
aF5.957700327673518e-05
aa(lp843
S'aesop'
p844
aF0.0
aa(lp845
S'mind-destroy'
p846
aF5.957700327673518e-05
aa(lp847
S'ingest'
p848
aF0.0
aa(lp849
S'bat'
p850
aF0.0
aa(lp851
S'setup'
p852
aF0.00011915400655347036
aa(lp853
S'requisit'
p854
aF5.957700327673518e-05
aa(lp855
S'dot'
p856
aF5.957700327673518e-05
aa(lp857
S'island'
p858
aF5.957700327673518e-05
aa(lp859
S'qualiti'
p860
aF0.00023830801310694073
aa(lp861
S'21\\/2'
p862
aF5.957700327673518e-05
aa(lp863
S'dread'
p864
aF0.00017873100983020553
aa(lp865
S'amateurishli'
p866
aF5.957700327673518e-05
aa(lp867
S'masterli'
p868
aF0.0
aa(lp869
S'pretend'
p870
aF0.00017873100983020553
aa(lp871
S'super'
p872
aF5.957700327673518e-05
aa(lp873
S'biscuit'
p874
aF5.957700327673518e-05
aa(lp875
S'peculiar'
p876
aF5.957700327673518e-05
aa(lp877
S'breathless'
p878
aF5.957700327673518e-05
aa(lp879
S'claus'
p880
aF5.957700327673518e-05
aa(lp881
S'speed'
p882
aF5.957700327673518e-05
aa(lp883
S'achero'
p884
aF0.0
aa(lp885
S'concess'
p886
aF5.957700327673518e-05
aa(lp887
S'vehicl'
p888
aF0.00017873100983020553
aa(lp889
S'frat-boy'
p890
aF0.0
aa(lp891
S'whodunit'
p892
aF5.957700327673518e-05
aa(lp893
S'eighti'
p894
aF0.0
aa(lp895
S'ill-advis'
p896
aF5.957700327673518e-05
aa(lp897
S'twenty-som'
p898
aF5.957700327673518e-05
aa(lp899
S'ineffect'
p900
aF5.957700327673518e-05
aa(lp901
S'subplot'
p902
aF5.957700327673518e-05
aa(lp903
S'thirti'
p904
aF0.00011915400655347036
aa(lp905
S'insult'
p906
aF0.0005361930294906167
aa(lp907
S'loathsom'
p908
aF0.00011915400655347036
aa(lp909
S'repuls'
p910
aF0.00011915400655347036
aa(lp911
S'incoher'
p912
aF0.00047661602621388145
aa(lp913
S'incomprehens'
p914
aF0.00017873100983020553
aa(lp915
S'lack'
p916
aF0.0013702710753649091
aa(lp917
S'inadequ'
p918
aF5.957700327673518e-05
aa(lp919
S'bear'
p920
aF0.00035746201966041106
aa(lp921
S'made-for-home-video'
p922
aF0.0
aa(lp923
S'jackass'
p924
aF0.00011915400655347036
aa(lp925
S'stereotyp'
p926
aF0.00023830801310694073
aa(lp927
S'monro'
p928
aF5.957700327673518e-05
aa(lp929
S'rigidli'
p930
aF0.0
aa(lp931
S'roach'
p932
aF5.957700327673518e-05
aa(lp933
S'assassin'
p934
aF5.957700327673518e-05
aa(lp935
S'obligatori'
p936
aF0.00011915400655347036
aa(lp937
S'georgian-isra'
p938
aF0.0
aa(lp939
S'user-friendli'
p940
aF0.0
aa(lp941
S'snoozer'
p942
aF0.0
aa(lp943
S'tangent'
p944
aF0.0
aa(lp945
S'insignific'
p946
aF5.957700327673518e-05
aa(lp947
S'conceit'
p948
aF5.957700327673518e-05
aa(lp949
S'execut'
p950
aF0.0004170390229371463
aa(lp951
S'bloodbath'
p952
aF0.0
aa(lp953
S'farcic'
p954
aF5.957700327673518e-05
aa(lp955
S'elicit'
p956
aF5.957700327673518e-05
aa(lp957
S'pallid'
p958
aF5.957700327673518e-05
aa(lp959
S'conceiv'
p960
aF0.00011915400655347036
aa(lp961
S'concept'
p962
aF0.0004170390229371463
aa(lp963
S'crime'
p964
aF0.0005361930294906167
aa(lp965
S'dant'
p966
aF0.0
aa(lp967
S'theatr'
p968
aF0.00023830801310694073
aa(lp969
S'sandwich'
p970
aF0.0
aa(lp971
S'unleash'
p972
aF5.957700327673518e-05
aa(lp973
S'deploy'
p974
aF5.957700327673518e-05
aa(lp975
S'weirder'
p976
aF0.0
aa(lp977
S'cater'
p978
aF5.957700327673518e-05
aa(lp979
S'palma'
p980
aF5.957700327673518e-05
aa(lp981
S'post-septemb'
p982
aF5.957700327673518e-05
aa(lp983
S'weakli'
p984
aF0.0
aa(lp985
S'firmli'
p986
aF5.957700327673518e-05
aa(lp987
S'target'
p988
aF0.0002978850163836759
aa(lp989
S'post-product'
p990
aF5.957700327673518e-05
aa(lp991
S'aw'
p992
aF0.00035746201966041106
aa(lp993
S'ourselv'
p994
aF5.957700327673518e-05
aa(lp995
S'vile'
p996
aF5.957700327673518e-05
aa(lp997
S'stripped-down'
p998
aF0.0
aa(lp999
S'lucki'
p1000
aF5.957700327673518e-05
aa(lp1001
S'assert'
p1002
aF5.957700327673518e-05
aa(lp1003
S'luck'
p1004
aF5.957700327673518e-05
aa(lp1005
S'movie-biz'
p1006
aF5.957700327673518e-05
aa(lp1007
S'gawki'
p1008
aF0.0
aa(lp1009
S'disgust'
p1010
aF0.00023830801310694073
aa(lp1011
S'work-in-progress'
p1012
aF5.957700327673518e-05
aa(lp1013
S'unflapp'
p1014
aF0.0
aa(lp1015
S'costli'
p1016
aF5.957700327673518e-05
aa(lp1017
S'pow'
p1018
aF0.00011915400655347036
aa(lp1019
S'rile'
p1020
aF0.0
aa(lp1021
S'oili'
p1022
aF5.957700327673518e-05
aa(lp1023
S'actorish'
p1024
aF0.0
aa(lp1025
S'titl'
p1026
aF0.0005957700327673518
aa(lp1027
S'dash'
p1028
aF5.957700327673518e-05
aa(lp1029
S'ice-t'
p1030
aF5.957700327673518e-05
aa(lp1031
S'cylind'
p1032
aF5.957700327673518e-05
aa(lp1033
S'joke'
p1034
aF0.0005957700327673518
aa(lp1035
S'pars'
p1036
aF0.0
aa(lp1037
S'slash-fest'
p1038
aF0.0
aa(lp1039
S'pseudo-witti'
p1040
aF0.0
aa(lp1041
S'assassin'
p1042
aF5.957700327673518e-05
aa(lp1043
S'blaze'
p1044
aF5.957700327673518e-05
aa(lp1045
S'sprinkl'
p1046
aF5.957700327673518e-05
aa(lp1047
S'truncat'
p1048
aF0.0
aa(lp1049
S'verdict'
p1050
aF5.957700327673518e-05
aa(lp1051
S'misfir'
p1052
aF0.00017873100983020553
aa(lp1053
S'toilet'
p1054
aF0.00017873100983020553
aa(lp1055
S'cross-dress'
p1056
aF5.957700327673518e-05
aa(lp1057
S'drink'
p1058
aF0.00011915400655347036
aa(lp1059
S'hedonist'
p1060
aF5.957700327673518e-05
aa(lp1061
S'scare'
p1062
aF0.00011915400655347036
aa(lp1063
S'scare'
p1064
aF0.00011915400655347036
aa(lp1065
S'virtual'
p1066
aF0.0002978850163836759
aa(lp1067
S'distinguish'
p1068
aF0.00023830801310694073
aa(lp1069
S'analysi'
p1070
aF0.0
aa(lp1071
S'terrorist'
p1072
aF5.957700327673518e-05
aa(lp1073
S'pileup'
p1074
aF0.00011915400655347036
aa(lp1075
S'cruel'
p1076
aF0.00011915400655347036
aa(lp1077
S'pay'
p1078
aF0.0004170390229371463
aa(lp1079
S'nari'
p1080
aF5.957700327673518e-05
aa(lp1081
S'glimmer'
p1082
aF5.957700327673518e-05
aa(lp1083
S'flower'
p1084
aF5.957700327673518e-05
aa(lp1085
S'kinda'
p1086
aF5.957700327673518e-05
aa(lp1087
S'greas'
p1088
aF5.957700327673518e-05
aa(lp1089
S'kung'
p1090
aF0.00017873100983020553
aa(lp1091
S'greasi'
p1092
aF5.957700327673518e-05
aa(lp1093
S'roussillon'
p1094
aF0.0
aa(lp1095
S'embarrassingli'
p1096
aF5.957700327673518e-05
aa(lp1097
S'whoop'
p1098
aF5.957700327673518e-05
aa(lp1099
S'ugly-duckl'
p1100
aF0.0
aa(lp1101
S'miscalcul'
p1102
aF0.00011915400655347036
aa(lp1103
S'surf'
p1104
aF5.957700327673518e-05
aa(lp1105
S'bagatel'
p1106
aF0.0
aa(lp1107
S'liar'
p1108
aF5.957700327673518e-05
aa(lp1109
S'tactic'
p1110
aF5.957700327673518e-05
aa(lp1111
S'candy-coat'
p1112
aF0.0
aa(lp1113
S'retina'
p1114
aF0.0
aa(lp1115
S'well-trod'
p1116
aF5.957700327673518e-05
aa(lp1117
S'coulda'
p1118
aF0.0
aa(lp1119
S'nada'
p1120
aF0.0
aa(lp1121
S'gap'
p1122
aF5.957700327673518e-05
aa(lp1123
S'campaign-trail'
p1124
aF0.0
aa(lp1125
S'like-them'
p1126
aF0.0
aa(lp1127
S'slime'
p1128
aF5.957700327673518e-05
aa(lp1129
S'extrem'
p1130
aF0.0004170390229371463
aa(lp1131
S'idiot'
p1132
aF0.00023830801310694073
aa(lp1133
S'logic'
p1134
aF0.00023830801310694073
aa(lp1135
S'rowl'
p1136
aF5.957700327673518e-05
aa(lp1137
S'showcas'
p1138
aF0.00011915400655347036
aa(lp1139
S'pow'
p1140
aF0.00011915400655347036
aa(lp1141
S'store'
p1142
aF0.00011915400655347036
aa(lp1143
S'2002'
p1144
aF0.00023830801310694073
aa(lp1145
S'postcard'
p1146
aF0.00011915400655347036
aa(lp1147
S'stop'
p1148
aF0.00023830801310694073
aa(lp1149
S'faster'
p1150
aF0.00011915400655347036
aa(lp1151
S'lion'
p1152
aF5.957700327673518e-05
aa(lp1153
S'stoop'
p1154
aF0.00011915400655347036
aa(lp1155
S'gain'
p1156
aF0.00011915400655347036
aa(lp1157
S'edit'
p1158
aF0.0004170390229371463
aa(lp1159
S'tongu'
p1160
aF5.957700327673518e-05
aa(lp1161
S'2001'
p1162
aF5.957700327673518e-05
aa(lp1163
S'all-inclus'
p1164
aF0.0
aa(lp1165
S'gymnast'
p1166
aF5.957700327673518e-05
aa(lp1167
S'gall'
p1168
aF5.957700327673518e-05
aa(lp1169
S'wait'
p1170
aF0.0004170390229371463
aa(lp1171
S'game'
p1172
aF0.00035746201966041106
aa(lp1173
S'drag'
p1174
aF0.0004170390229371463
aa(lp1175
S'basketbal'
p1176
aF5.957700327673518e-05
aa(lp1177
S'frustrat'
p1178
aF0.00017873100983020553
aa(lp1179
S'trivial'
p1180
aF0.00011915400655347036
aa(lp1181
S'fragmentari'
p1182
aF5.957700327673518e-05
aa(lp1183
S'hypocrit'
p1184
aF5.957700327673518e-05
aa(lp1185
S'sharpli'
p1186
aF0.0
aa(lp1187
S'miser'
p1188
aF5.957700327673518e-05
aa(lp1189
S'ackerman'
p1190
aF0.0
aa(lp1191
S's&m'
p1192
aF0.0
aa(lp1193
S'wherein'
p1194
aF0.0
aa(lp1195
S'remov'
p1196
aF0.00011915400655347036
aa(lp1197
S'frustrat'
p1198
aF0.00017873100983020553
aa(lp1199
S'creek'
p1200
aF5.957700327673518e-05
aa(lp1201
S'trademark'
p1202
aF0.00011915400655347036
aa(lp1203
S'pollyana'
p1204
aF0.0
aa(lp1205
S'grade'
p1206
aF0.00017873100983020553
aa(lp1207
S'slide'
p1208
aF5.957700327673518e-05
aa(lp1209
S'underrehears'
p1210
aF0.0
aa(lp1211
S'attract'
p1212
aF0.0002978850163836759
aa(lp1213
S'kieslowski'
p1214
aF0.00011915400655347036
aa(lp1215
S'brockovich'
p1216
aF0.0
aa(lp1217
S'madcap'
p1218
aF5.957700327673518e-05
aa(lp1219
S'cancer'
p1220
aF5.957700327673518e-05
aa(lp1221
S'optimist'
p1222
aF5.957700327673518e-05
aa(lp1223
S'drawn'
p1224
aF0.00011915400655347036
aa(lp1225
S'contriv'
p1226
aF0.0005361930294906167
aa(lp1227
S'describ'
p1228
aF0.00017873100983020553
aa(lp1229
S'fiendish'
p1230
aF5.957700327673518e-05
aa(lp1231
S'cannier'
p1232
aF0.0
aa(lp1233
S'gestalt'
p1234
aF0.0
aa(lp1235
S'underdon'
p1236
aF5.957700327673518e-05
aa(lp1237
S'smitten'
p1238
aF0.0
aa(lp1239
S'pathet'
p1240
aF0.00035746201966041106
aa(lp1241
S'ballsi'
p1242
aF0.0
aa(lp1243
S'care'
p1244
aF0.0007745010425975573
aa(lp1245
S'non-stop'
p1246
aF5.957700327673518e-05
aa(lp1247
S'\\/nurtur'
p1248
aF0.0
aa(lp1249
S'chitchat'
p1250
aF0.0
aa(lp1251
S'journalist'
p1252
aF0.00011915400655347036
aa(lp1253
S'argentinean'
p1254
aF0.0
aa(lp1255
S'loaf'
p1256
aF0.0
aa(lp1257
S'bypass'
p1258
aF5.957700327673518e-05
aa(lp1259
S'borstal'
p1260
aF5.957700327673518e-05
aa(lp1261
S'jangl'
p1262
aF5.957700327673518e-05
aa(lp1263
S'barrymor'
p1264
aF5.957700327673518e-05
aa(lp1265
S'scientist'
p1266
aF5.957700327673518e-05
aa(lp1267
S'hobbl'
p1268
aF5.957700327673518e-05
aa(lp1269
S'creator'
p1270
aF5.957700327673518e-05
aa(lp1271
S'veret'
p1272
aF0.0
aa(lp1273
S'unfulfil'
p1274
aF0.00011915400655347036
aa(lp1275
S'up-and-com'
p1276
aF0.0
aa(lp1277
S'pollut'
p1278
aF5.957700327673518e-05
aa(lp1279
S'janszen'
p1280
aF5.957700327673518e-05
aa(lp1281
S'skeev'
p1282
aF5.957700327673518e-05
aa(lp1283
S'allow'
p1284
aF0.0002978850163836759
aa(lp1285
S'conceit'
p1286
aF5.957700327673518e-05
aa(lp1287
S'stunt-hungri'
p1288
aF0.0
aa(lp1289
S'plummet'
p1290
aF5.957700327673518e-05
aa(lp1291
S'stubbornli'
p1292
aF5.957700327673518e-05
aa(lp1293
S'loosely-connect'
p1294
aF0.0
aa(lp1295
S'loud'
p1296
aF0.00047661602621388145
aa(lp1297
S'air'
p1298
aF0.00017873100983020553
aa(lp1299
S'cathol'
p1300
aF5.957700327673518e-05
aa(lp1301
S'exchang'
p1302
aF0.0
aa(lp1303
S'almodovar'
p1304
aF5.957700327673518e-05
aa(lp1305
S'purpos'
p1306
aF0.00047661602621388145
aa(lp1307
S'hypermasculin'
p1308
aF0.0
aa(lp1309
S'prais'
p1310
aF0.00011915400655347036
aa(lp1311
S'flaki'
p1312
aF0.0
aa(lp1313
S'jr.'
p1314
aF5.957700327673518e-05
aa(lp1315
S'decid'
p1316
aF0.00017873100983020553
aa(lp1317
S'inept'
p1318
aF0.00023830801310694073
aa(lp1319
S'cash'
p1320
aF5.957700327673518e-05
aa(lp1321
S'pain'
p1322
aF0.0005957700327673518
aa(lp1323
S'75-minut'
p1324
aF5.957700327673518e-05
aa(lp1325
S'dull'
p1326
aF0.0013702710753649091
aa(lp1327
S'borderlin'
p1328
aF5.957700327673518e-05
aa(lp1329
S'galan'
p1330
aF0.0
aa(lp1331
S'ingenu'
p1332
aF5.957700327673518e-05
aa(lp1333
S'videotap'
p1334
aF5.957700327673518e-05
aa(lp1335
S'stink'
p1336
aF0.00017873100983020553
aa(lp1337
S'impervi'
p1338
aF0.0
aa(lp1339
S'oversimplif'
p1340
aF5.957700327673518e-05
aa(lp1341
S'junk-calori'
p1342
aF0.0
aa(lp1343
S'zero'
p1344
aF0.00011915400655347036
aa(lp1345
S'improperli'
p1346
aF5.957700327673518e-05
aa(lp1347
S'gang-rap'
p1348
aF5.957700327673518e-05
aa(lp1349
S'cascad'
p1350
aF0.0
aa(lp1351
S'solari'
p1352
aF5.957700327673518e-05
aa(lp1353
S'meander'
p1354
aF0.00017873100983020553
aa(lp1355
S'vidgam'
p1356
aF5.957700327673518e-05
aa(lp1357
S'dopey'
p1358
aF0.00011915400655347036
aa(lp1359
S'\\/thriller'
p1360
aF0.0
aa(lp1361
S'prurient'
p1362
aF5.957700327673518e-05
aa(lp1363
S'thirteen-year-old'
p1364
aF0.0
aa(lp1365
S'catcher'
p1366
aF5.957700327673518e-05
aa(lp1367
S'water-born'
p1368
aF0.0
aa(lp1369
S'stiff'
p1370
aF5.957700327673518e-05
aa(lp1371
S'stick'
p1372
aF0.0002978850163836759
aa(lp1373
S'similarli'
p1374
aF5.957700327673518e-05
aa(lp1375
S'alter'
p1376
aF5.957700327673518e-05
aa(lp1377
S'rothman'
p1378
aF0.0
aa(lp1379
S'rambl'
p1380
aF0.00017873100983020553
aa(lp1381
S'intermin'
p1382
aF0.00011915400655347036
aa(lp1383
S'earthli'
p1384
aF5.957700327673518e-05
aa(lp1385
S'listen'
p1386
aF5.957700327673518e-05
aa(lp1387
S'independent-commun'
p1388
aF5.957700327673518e-05
aa(lp1389
S'requir'
p1390
aF0.00023830801310694073
aa(lp1391
S'riot-control'
p1392
aF5.957700327673518e-05
aa(lp1393
S'fresh-squeez'
p1394
aF0.0
aa(lp1395
S'bergmanesqu'
p1396
aF0.0
aa(lp1397
S'freshman'
p1398
aF0.0
aa(lp1399
S'atroci'
p1400
aF0.00011915400655347036
aa(lp1401
S'suppl'
p1402
aF0.0
aa(lp1403
S'rusi'
p1404
aF0.0
aa(lp1405
S'unfortun'
p1406
aF0.0002978850163836759
aa(lp1407
S'top-heavi'
p1408
aF5.957700327673518e-05
aa(lp1409
S'doorstep'
p1410
aF5.957700327673518e-05
aa(lp1411
S'nowaday'
p1412
aF0.0
aa(lp1413
S'undeserv'
p1414
aF5.957700327673518e-05
aa(lp1415
S'propuls'
p1416
aF0.0
aa(lp1417
S'robot'
p1418
aF5.957700327673518e-05
aa(lp1419
S'particular'
p1420
aF0.00011915400655347036
aa(lp1421
S'crypt'
p1422
aF0.0
aa(lp1423
S'highly-prais'
p1424
aF5.957700327673518e-05
aa(lp1425
S'sour'
p1426
aF0.00017873100983020553
aa(lp1427
S'deliber'
p1428
aF0.00011915400655347036
aa(lp1429
S'schmuck'
p1430
aF5.957700327673518e-05
aa(lp1431
S'sourc'
p1432
aF0.00023830801310694073
aa(lp1433
S'intoler'
p1434
aF5.957700327673518e-05
aa(lp1435
S'wade'
p1436
aF5.957700327673518e-05
aa(lp1437
S'mgm'
p1438
aF0.0
aa(lp1439
S'tape'
p1440
aF0.0
aa(lp1441
S'interlud'
p1442
aF0.0
aa(lp1443
S'tightrop'
p1444
aF5.957700327673518e-05
aa(lp1445
S'amount'
p1446
aF0.00047661602621388145
aa(lp1447
S'characterist'
p1448
aF5.957700327673518e-05
aa(lp1449
S'abject'
p1450
aF5.957700327673518e-05
aa(lp1451
S'garbag'
p1452
aF0.00023830801310694073
aa(lp1453
S'strung-togeth'
p1454
aF0.00011915400655347036
aa(lp1455
S'amateurish'
p1456
aF0.00035746201966041106
aa(lp1457
S'irvin'
p1458
aF0.0
aa(lp1459
S'j.k.'
p1460
aF5.957700327673518e-05
aa(lp1461
S'\\/produc'
p1462
aF0.0
aa(lp1463
S'hollywood-act'
p1464
aF5.957700327673518e-05
aa(lp1465
S'serv'
p1466
aF0.00035746201966041106
aa(lp1467
S'gutless'
p1468
aF5.957700327673518e-05
aa(lp1469
S'sketchi'
p1470
aF0.00011915400655347036
aa(lp1471
S'divorc'
p1472
aF5.957700327673518e-05
aa(lp1473
S'antwon'
p1474
aF0.00017873100983020553
aa(lp1475
S'lack'
p1476
aF0.0013702710753649091
aa(lp1477
S'well-mount'
p1478
aF0.0
aa(lp1479
S'mib'
p1480
aF5.957700327673518e-05
aa(lp1481
S'screenwrit'
p1482
aF0.0005361930294906167
aa(lp1483
S'assault'
p1484
aF0.00011915400655347036
aa(lp1485
S'underwear'
p1486
aF0.0
aa(lp1487
S'scous'
p1488
aF5.957700327673518e-05
aa(lp1489
S'unwatch'
p1490
aF5.957700327673518e-05
aa(lp1491
S'backdrop'
p1492
aF5.957700327673518e-05
aa(lp1493
S'decis'
p1494
aF5.957700327673518e-05
aa(lp1495
S'irony-fre'
p1496
aF0.0
aa(lp1497
S'total'
p1498
aF0.0002978850163836759
aa(lp1499
S'effect'
p1500
aF0.000655347036044087
aa(lp1501
S'unspeak'
p1502
aF0.00011915400655347036
aa(lp1503
S'facad'
p1504
aF5.957700327673518e-05
aa(lp1505
S'incarn'
p1506
aF5.957700327673518e-05
aa(lp1507
S'theater'
p1508
aF0.0005361930294906167
aa(lp1509
S'purpos'
p1510
aF0.00047661602621388145
aa(lp1511
S'thesp'
p1512
aF5.957700327673518e-05
aa(lp1513
S'overexpos'
p1514
aF5.957700327673518e-05
aa(lp1515
S'bellyach'
p1516
aF0.0
aa(lp1517
S'fire'
p1518
aF0.0002978850163836759
aa(lp1519
S'bore'
p1520
aF0.0007745010425975573
aa(lp1521
S'zombie-land'
p1522
aF0.0
aa(lp1523
S'capit'
p1524
aF0.00011915400655347036
aa(lp1525
S'sleep'
p1526
aF0.00011915400655347036
aa(lp1527
S'mpaa'
p1528
aF5.957700327673518e-05
aa(lp1529
S'spade'
p1530
aF0.0
aa(lp1531
S'inter-famili'
p1532
aF0.0
aa(lp1533
S'rough-hewn'
p1534
aF5.957700327673518e-05
aa(lp1535
S'zipper'
p1536
aF5.957700327673518e-05
aa(lp1537
S'workmanlik'
p1538
aF5.957700327673518e-05
aa(lp1539
S'glori'
p1540
aF0.00011915400655347036
aa(lp1541
S'suffoc'
p1542
aF5.957700327673518e-05
aa(lp1543
S'art-hous'
p1544
aF5.957700327673518e-05
aa(lp1545
S'burn'
p1546
aF0.00017873100983020553
aa(lp1547
S'suffoc'
p1548
aF5.957700327673518e-05
aa(lp1549
S'thin'
p1550
aF0.0004170390229371463
aa(lp1551
S'evalu'
p1552
aF5.957700327673518e-05
aa(lp1553
S'absurdli'
p1554
aF5.957700327673518e-05
aa(lp1555
S'humbl'
p1556
aF5.957700327673518e-05
aa(lp1557
S'opportun'
p1558
aF0.00035746201966041106
aa(lp1559
S'less-is-mor'
p1560
aF0.0
aa(lp1561
S'sundanc'
p1562
aF5.957700327673518e-05
aa(lp1563
S'quash'
p1564
aF0.0
aa(lp1565
S'tykwer'
p1566
aF0.00011915400655347036
aa(lp1567
S'infuri'
p1568
aF5.957700327673518e-05
aa(lp1569
S'disappoint'
p1570
aF0.00047661602621388145
aa(lp1571
S'shelv'
p1572
aF0.0
aa(lp1573
S'opportun'
p1574
aF0.00035746201966041106
aa(lp1575
S'megaplex'
p1576
aF5.957700327673518e-05
aa(lp1577
S'sever'
p1578
aF0.000655347036044087
aa(lp1579
S'eventu'
p1580
aF0.00023830801310694073
aa(lp1581
S'symbol'
p1582
aF5.957700327673518e-05
aa(lp1583
S'contemptu'
p1584
aF5.957700327673518e-05
aa(lp1585
S'rise-and-fal'
p1586
aF0.0
aa(lp1587
S'weigh'
p1588
aF5.957700327673518e-05
aa(lp1589
S'unbreak'
p1590
aF5.957700327673518e-05
aa(lp1591
S'fiji'
p1592
aF0.0
aa(lp1593
S'undergo'
p1594
aF5.957700327673518e-05
aa(lp1595
S'unpaid'
p1596
aF5.957700327673518e-05
aa(lp1597
S'possibl'
p1598
aF0.0007745010425975573
aa(lp1599
S'badder'
p1600
aF0.0
aa(lp1601
S'suffoc'
p1602
aF5.957700327673518e-05
aa(lp1603
S'labori'
p1604
aF0.0
aa(lp1605
S'deviant'
p1606
aF0.0
aa(lp1607
S'retrograd'
p1608
aF5.957700327673518e-05
aa(lp1609
S'spoofi'
p1610
aF0.0
aa(lp1611
S'erupt'
p1612
aF0.0
aa(lp1613
S'vulakoro'
p1614
aF0.0
aa(lp1615
S'minimalist'
p1616
aF5.957700327673518e-05
aa(lp1617
S'laughabl'
p1618
aF0.00023830801310694073
aa(lp1619
S'complet'
p1620
aF0.0008340780458742926
aa(lp1621
S'bravado'
p1622
aF5.957700327673518e-05
aa(lp1623
S'alik'
p1624
aF5.957700327673518e-05
aa(lp1625
S'rough-around-the-edg'
p1626
aF0.0
aa(lp1627
S'laughabl'
p1628
aF0.00023830801310694073
aa(lp1629
S'rock'
p1630
aF0.00023830801310694073
aa(lp1631
S'rode'
p1632
aF5.957700327673518e-05
aa(lp1633
S'steami'
p1634
aF5.957700327673518e-05
aa(lp1635
S'onion'
p1636
aF0.0
aa(lp1637
S'patch'
p1638
aF5.957700327673518e-05
aa(lp1639
S'testosteron'
p1640
aF5.957700327673518e-05
aa(lp1641
S'embodi'
p1642
aF0.0
aa(lp1643
S'disorient'
p1644
aF0.0
aa(lp1645
S'steal'
p1646
aF0.00023830801310694073
aa(lp1647
S'bear'
p1648
aF0.00035746201966041106
aa(lp1649
S'silver-hair'
p1650
aF0.0
aa(lp1651
S'best-sustain'
p1652
aF0.0
aa(lp1653
S'mess'
p1654
aF0.0008936550491510277
aa(lp1655
S'review'
p1656
aF0.00011915400655347036
aa(lp1657
S'dodg'
p1658
aF5.957700327673518e-05
aa(lp1659
S'belinski'
p1660
aF0.0
aa(lp1661
S'artific'
p1662
aF0.00011915400655347036
aa(lp1663
S'copout'
p1664
aF0.0
aa(lp1665
S'script'
p1666
aF0.0013702710753649091
aa(lp1667
S'print'
p1668
aF0.00011915400655347036
aa(lp1669
S'salvag'
p1670
aF5.957700327673518e-05
aa(lp1671
S'wolf'
p1672
aF0.0
aa(lp1673
S'assum'
p1674
aF0.00023830801310694073
aa(lp1675
S'agre'
p1676
aF0.0
aa(lp1677
S'interrupt'
p1678
aF0.0
aa(lp1679
S'assault'
p1680
aF0.00011915400655347036
aa(lp1681
S'earth'
p1682
aF0.00011915400655347036
aa(lp1683
S'thieveri'
p1684
aF5.957700327673518e-05
aa(lp1685
S'frustrat'
p1686
aF0.00017873100983020553
aa(lp1687
S'garner'
p1688
aF5.957700327673518e-05
aa(lp1689
S'sourc'
p1690
aF0.00023830801310694073
aa(lp1691
S'unresolv'
p1692
aF0.0
aa(lp1693
S'frustrat'
p1694
aF0.00017873100983020553
aa(lp1695
S'facil'
p1696
aF5.957700327673518e-05
aa(lp1697
S'paper'
p1698
aF0.00011915400655347036
aa(lp1699
S'mcdowel'
p1700
aF0.0
aa(lp1701
S'broil'
p1702
aF0.0
aa(lp1703
S'search'
p1704
aF0.00011915400655347036
aa(lp1705
S'phantom'
p1706
aF0.0
aa(lp1707
S'feardotcom.com'
p1708
aF5.957700327673518e-05
aa(lp1709
S'unsatisfactorili'
p1710
aF0.0
aa(lp1711
S'flatli'
p1712
aF5.957700327673518e-05
aa(lp1713
S'action-comedi'
p1714
aF0.00011915400655347036
aa(lp1715
S'wasabi'
p1716
aF0.0
aa(lp1717
S'egregi'
p1718
aF0.0
aa(lp1719
S'disjoint'
p1720
aF0.00017873100983020553
aa(lp1721
S"o'fallon"
p1722
aF5.957700327673518e-05
aa(lp1723
S'elicit'
p1724
aF5.957700327673518e-05
aa(lp1725
S'halfheart'
p1726
aF5.957700327673518e-05
aa(lp1727
S'fantasma'
p1728
aF5.957700327673518e-05
aa(lp1729
S'earlier'
p1730
aF0.00011915400655347036
aa(lp1731
S'sabotag'
p1732
aF5.957700327673518e-05
aa(lp1733
S'wedg'
p1734
aF0.0
aa(lp1735
S'ill-tim'
p1736
aF5.957700327673518e-05
aa(lp1737
S'suge'
p1738
aF0.0
aa(lp1739
S'burlesqu'
p1740
aF0.0
aa(lp1741
S'thin'
p1742
aF0.0004170390229371463
aa(lp1743
S'heroin'
p1744
aF5.957700327673518e-05
aa(lp1745
S'singl'
p1746
aF0.00047661602621388145
aa(lp1747
S'heroism'
p1748
aF5.957700327673518e-05
aa(lp1749
S'landbound'
p1750
aF0.0
aa(lp1751
S'favorit'
p1752
aF0.00011915400655347036
aa(lp1753
S'abras'
p1754
aF0.0
aa(lp1755
S'parrot'
p1756
aF0.0
aa(lp1757
S'unev'
p1758
aF5.957700327673518e-05
aa(lp1759
S'fear'
p1760
aF0.0004170390229371463
aa(lp1761
S'loos'
p1762
aF0.00023830801310694073
aa(lp1763
S'feel'
p1764
aF0.002085195114685731
aa(lp1765
S'feet'
p1766
aF5.957700327673518e-05
aa(lp1767
S'climax'
p1768
aF5.957700327673518e-05
aa(lp1769
S'unintent'
p1770
aF0.00017873100983020553
aa(lp1771
S'perki'
p1772
aF0.0
aa(lp1773
S'cardoso'
p1774
aF0.0
aa(lp1775
S'koepp'
p1776
aF5.957700327673518e-05
aa(lp1777
S'put'
p1778
aF0.00047661602621388145
aa(lp1779
S'symbol'
p1780
aF5.957700327673518e-05
aa(lp1781
S'fail'
p1782
aF0.0008340780458742926
aa(lp1783
S'paycheck'
p1784
aF0.0
aa(lp1785
S'usher'
p1786
aF5.957700327673518e-05
aa(lp1787
S'stop'
p1788
aF0.00023830801310694073
aa(lp1789
S'incongru'
p1790
aF5.957700327673518e-05
aa(lp1791
S'characteris'
p1792
aF5.957700327673518e-05
aa(lp1793
S'secret'
p1794
aF0.00017873100983020553
aa(lp1795
S'erin'
p1796
aF0.0
aa(lp1797
S'doubt'
p1798
aF0.00017873100983020553
aa(lp1799
S'meat'
p1800
aF5.957700327673518e-05
aa(lp1801
S'websit'
p1802
aF0.00011915400655347036
aa(lp1803
S'extra-larg'
p1804
aF5.957700327673518e-05
aa(lp1805
S'project'
p1806
aF0.00035746201966041106
aa(lp1807
S'robot'
p1808
aF5.957700327673518e-05
aa(lp1809
S'myriad'
p1810
aF0.0
aa(lp1811
S'choppi'
p1812
aF0.00017873100983020553
aa(lp1813
S'empti'
p1814
aF0.00023830801310694073
aa(lp1815
S'refus'
p1816
aF0.00011915400655347036
aa(lp1817
S'pseudo-seri'
p1818
aF5.957700327673518e-05
aa(lp1819
S'graduat'
p1820
aF5.957700327673518e-05
aa(lp1821
S'pseudo-rock-video'
p1822
aF5.957700327673518e-05
aa(lp1823
S'imagin'
p1824
aF0.0007149240393208221
aa(lp1825
S'imagin'
p1826
aF0.0007149240393208221
aa(lp1827
S'pay'
p1828
aF0.0004170390229371463
aa(lp1829
S'listen'
p1830
aF5.957700327673518e-05
aa(lp1831
S'rewritten'
p1832
aF5.957700327673518e-05
aa(lp1833
S'void'
p1834
aF5.957700327673518e-05
aa(lp1835
S'literarili'
p1836
aF5.957700327673518e-05
aa(lp1837
S'pawn'
p1838
aF0.0
aa(lp1839
S'besot'
p1840
aF5.957700327673518e-05
aa(lp1841
S'inconsist'
p1842
aF0.00011915400655347036
aa(lp1843
S'fatal'
p1844
aF0.0002978850163836759
aa(lp1845
S'zen'
p1846
aF0.0
aa(lp1847
S'reginald'
p1848
aF5.957700327673518e-05
aa(lp1849
S'consid'
p1850
aF0.00017873100983020553
aa(lp1851
S'patric'
p1852
aF0.0
aa(lp1853
S'concept'
p1854
aF0.0004170390229371463
aa(lp1855
S'pass'
p1856
aF0.0002978850163836759
aa(lp1857
S'irrig'
p1858
aF0.0
aa(lp1859
S'calibr'
p1860
aF5.957700327673518e-05
aa(lp1861
S'euphem'
p1862
aF5.957700327673518e-05
aa(lp1863
S'devic'
p1864
aF0.00011915400655347036
aa(lp1865
S'annoy'
p1866
aF0.00023830801310694073
aa(lp1867
S'glitter'
p1868
aF0.0
aa(lp1869
S'dragonfli'
p1870
aF0.00011915400655347036
aa(lp1871
S'hyper-artifici'
p1872
aF0.0
aa(lp1873
S'dealer'
p1874
aF5.957700327673518e-05
aa(lp1875
S'u-boat'
p1876
aF0.0
aa(lp1877
S'game'
p1878
aF0.00035746201966041106
aa(lp1879
S'mainli'
p1880
aF0.00011915400655347036
aa(lp1881
S'spanish'
p1882
aF0.0
aa(lp1883
S'undergo'
p1884
aF5.957700327673518e-05
aa(lp1885
S'disguis'
p1886
aF0.00035746201966041106
aa(lp1887
S'pantheon'
p1888
aF5.957700327673518e-05
aa(lp1889
S'pain'
p1890
aF0.0005957700327673518
aa(lp1891
S'erot'
p1892
aF0.00017873100983020553
aa(lp1893
S'perpetr'
p1894
aF5.957700327673518e-05
aa(lp1895
S'begin'
p1896
aF0.00047661602621388145
aa(lp1897
S'paper-thin'
p1898
aF0.00017873100983020553
aa(lp1899
S'idea'
p1900
aF0.0008340780458742926
aa(lp1901
S'extens'
p1902
aF5.957700327673518e-05
aa(lp1903
S'brosnan'
p1904
aF5.957700327673518e-05
aa(lp1905
S'debt'
p1906
aF5.957700327673518e-05
aa(lp1907
S'psychodramat'
p1908
aF0.0
aa(lp1909
S'describ'
p1910
aF0.00017873100983020553
aa(lp1911
S'forrest'
p1912
aF0.0
aa(lp1913
S'lip-non-synch'
p1914
aF0.0
aa(lp1915
S'copiou'
p1916
aF0.0
aa(lp1917
S'requir'
p1918
aF0.00023830801310694073
aa(lp1919
S'scripter'
p1920
aF5.957700327673518e-05
aa(lp1921
S'been-told-a'
p1922
aF5.957700327673518e-05
aa(lp1923
S'by-the-book'
p1924
aF0.0
aa(lp1925
S'clean-cut'
p1926
aF5.957700327673518e-05
aa(lp1927
S'repuls'
p1928
aF0.00011915400655347036
aa(lp1929
S'ventura'
p1930
aF5.957700327673518e-05
aa(lp1931
S'doorstep'
p1932
aF5.957700327673518e-05
aa(lp1933
S'angel'
p1934
aF0.00011915400655347036
aa(lp1935
S'extens'
p1936
aF5.957700327673518e-05
aa(lp1937
S'tuck'
p1938
aF5.957700327673518e-05
aa(lp1939
S'describ'
p1940
aF0.00017873100983020553
aa(lp1941
S'sequel-for-the-sak'
p1942
aF5.957700327673518e-05
aa(lp1943
S'guy-in-a-dress'
p1944
aF5.957700327673518e-05
aa(lp1945
S'bike'
p1946
aF5.957700327673518e-05
aa(lp1947
S'hopelessli'
p1948
aF5.957700327673518e-05
aa(lp1949
S'command'
p1950
aF0.0
aa(lp1951
S'ye'
p1952
aF0.0002978850163836759
aa(lp1953
S'made-for-movi'
p1954
aF5.957700327673518e-05
aa(lp1955
S'decomposit'
p1956
aF0.0
aa(lp1957
S'forgot'
p1958
aF5.957700327673518e-05
aa(lp1959
S'abandon'
p1960
aF0.00017873100983020553
aa(lp1961
S'outburst'
p1962
aF0.00011915400655347036
aa(lp1963
S'reason'
p1964
aF0.0005957700327673518
aa(lp1965
S'emptili'
p1966
aF0.0
aa(lp1967
S'previou'
p1968
aF0.00017873100983020553
aa(lp1969
S'dime-stor'
p1970
aF5.957700327673518e-05
aa(lp1971
S'reason'
p1972
aF0.0005957700327673518
aa(lp1973
S'happen'
p1974
aF0.00035746201966041106
aa(lp1975
S'icki'
p1976
aF5.957700327673518e-05
aa(lp1977
S'ticket'
p1978
aF0.00011915400655347036
aa(lp1979
S'sulk'
p1980
aF0.0
aa(lp1981
S'inadvert'
p1982
aF5.957700327673518e-05
aa(lp1983
S'road-trip'
p1984
aF0.00011915400655347036
aa(lp1985
S'refus'
p1986
aF0.00011915400655347036
aa(lp1987
S'clarifi'
p1988
aF5.957700327673518e-05
aa(lp1989
S'refus'
p1990
aF0.00011915400655347036
aa(lp1991
S'aggrav'
p1992
aF5.957700327673518e-05
aa(lp1993
S'pain'
p1994
aF0.0005957700327673518
aa(lp1995
S'european'
p1996
aF5.957700327673518e-05
aa(lp1997
S'pace'
p1998
aF0.00035746201966041106
aa(lp1999
S'quick-wit'
p2000
aF0.0
aa(lp2001
S'rip-off'
p2002
aF0.00023830801310694073
aa(lp2003
S'refus'
p2004
aF0.00011915400655347036
aa(lp2005
S'berg'
p2006
aF0.0
aa(lp2007
S'pact'
p2008
aF0.0
aa(lp2009
S'fudg'
p2010
aF5.957700327673518e-05
aa(lp2011
S'game'
p2012
aF0.00035746201966041106
aa(lp2013
S'porno'
p2014
aF0.0
aa(lp2015
S'all-around'
p2016
aF0.0
aa(lp2017
S'error'
p2018
aF0.00011915400655347036
aa(lp2019
S'pueril'
p2020
aF5.957700327673518e-05
aa(lp2021
S'secret'
p2022
aF0.00017873100983020553
aa(lp2023
S'digit'
p2024
aF0.00017873100983020553
aa(lp2025
S'matrix'
p2026
aF5.957700327673518e-05
aa(lp2027
S'hare'
p2028
aF0.0
aa(lp2029
S'judgment'
p2030
aF5.957700327673518e-05
aa(lp2031
S'comfi'
p2032
aF0.0
aa(lp2033
S'condescend'
p2034
aF5.957700327673518e-05
aa(lp2035
S'farc'
p2036
aF0.00017873100983020553
aa(lp2037
S'display'
p2038
aF0.00011915400655347036
aa(lp2039
S'arbitrarili'
p2040
aF0.0
aa(lp2041
S'65-minut'
p2042
aF5.957700327673518e-05
aa(lp2043
S'sordid'
p2044
aF0.00017873100983020553
aa(lp2045
S'girl-on-girl'
p2046
aF5.957700327673518e-05
aa(lp2047
S'indoor'
p2048
aF5.957700327673518e-05
aa(lp2049
S'indic'
p2050
aF0.00011915400655347036
aa(lp2051
S'sum'
p2052
aF0.00023830801310694073
aa(lp2053
S'motor'
p2054
aF0.0
aa(lp2055
S'malais'
p2056
aF5.957700327673518e-05
aa(lp2057
S'sweet-temp'
p2058
aF0.0
aa(lp2059
S'obnoxi'
p2060
aF0.00017873100983020553
aa(lp2061
S'vigil'
p2062
aF0.0
aa(lp2063
S'disgust'
p2064
aF0.00023830801310694073
aa(lp2065
S'mechan'
p2066
aF0.00011915400655347036
aa(lp2067
S'undeserv'
p2068
aF5.957700327673518e-05
aa(lp2069
S'redund'
p2070
aF0.00017873100983020553
aa(lp2071
S'vacat'
p2072
aF5.957700327673518e-05
aa(lp2073
S'stereotyp'
p2074
aF0.00023830801310694073
aa(lp2075
S'half'
p2076
aF0.0004170390229371463
aa(lp2077
S'comatos'
p2078
aF0.0
aa(lp2079
S'shoddi'
p2080
aF5.957700327673518e-05
aa(lp2081
S'thinly-conceiv'
p2082
aF5.957700327673518e-05
aa(lp2083
S'bear'
p2084
aF0.00035746201966041106
aa(lp2085
S'pregnant'
p2086
aF5.957700327673518e-05
aa(lp2087
S'musker'
p2088
aF0.0
aa(lp2089
S'unlimit'
p2090
aF5.957700327673518e-05
aa(lp2091
S'speci'
p2092
aF0.0
aa(lp2093
S'better-focus'
p2094
aF5.957700327673518e-05
aa(lp2095
S'repeatedli'
p2096
aF5.957700327673518e-05
aa(lp2097
S'pace'
p2098
aF0.00035746201966041106
aa(lp2099
S'lose'
p2100
aF0.0002978850163836759
aa(lp2101
S'loser'
p2102
aF5.957700327673518e-05
aa(lp2103
S'deriv'
p2104
aF0.0002978850163836759
aa(lp2105
S'sex'
p2106
aF0.0002978850163836759
aa(lp2107
S'scari'
p2108
aF0.0002978850163836759
aa(lp2109
S'post-feminist'
p2110
aF5.957700327673518e-05
aa(lp2111
S'unapp'
p2112
aF0.00011915400655347036
aa(lp2113
S'scare'
p2114
aF0.00011915400655347036
aa(lp2115
S'legal'
p2116
aF5.957700327673518e-05
aa(lp2117
S'opul'
p2118
aF0.0
aa(lp2119
S'pace'
p2120
aF0.00035746201966041106
aa(lp2121
S'margarita'
p2122
aF0.00011915400655347036
aa(lp2123
S'enter'
p2124
aF0.00017873100983020553
aa(lp2125
S'watch'
p2126
aF0.0017873100983020554
aa(lp2127
S'cap'
p2128
aF5.957700327673518e-05
aa(lp2129
S'watch'
p2130
aF0.0017873100983020554
aa(lp2131
S'male'
p2132
aF0.00011915400655347036
aa(lp2133
S'indic'
p2134
aF0.00011915400655347036
aa(lp2135
S'flashback'
p2136
aF5.957700327673518e-05
aa(lp2137
S'carpet'
p2138
aF0.0
aa(lp2139
S'tolstoy'
p2140
aF0.0
aa(lp2141
S'inquisit'
p2142
aF5.957700327673518e-05
aa(lp2143
S'gaghan'
p2144
aF5.957700327673518e-05
aa(lp2145
S'half-dimension'
p2146
aF0.0
aa(lp2147
S'worthless'
p2148
aF0.00011915400655347036
aa(lp2149
S'horribl'
p2150
aF0.0005361930294906167
aa(lp2151
S'rye'
p2152
aF5.957700327673518e-05
aa(lp2153
S'forgiven'
p2154
aF5.957700327673518e-05
aa(lp2155
S'fire'
p2156
aF0.0002978850163836759
aa(lp2157
S'horribl'
p2158
aF0.0005361930294906167
aa(lp2159
S'opinion'
p2160
aF5.957700327673518e-05
aa(lp2161
S'predica'
p2162
aF5.957700327673518e-05
aa(lp2163
S'understand'
p2164
aF0.0004170390229371463
aa(lp2165
S'former'
p2166
aF0.00011915400655347036
aa(lp2167
S'downhil'
p2168
aF5.957700327673518e-05
aa(lp2169
S'fizz'
p2170
aF5.957700327673518e-05
aa(lp2171
S'anomi'
p2172
aF5.957700327673518e-05
aa(lp2173
S'exhilaratingli'
p2174
aF0.0
aa(lp2175
S'annal'
p2176
aF5.957700327673518e-05
aa(lp2177
S'sermon'
p2178
aF5.957700327673518e-05
aa(lp2179
S'choke'
p2180
aF5.957700327673518e-05
aa(lp2181
S'germani'
p2182
aF0.0
aa(lp2183
S'haphazard'
p2184
aF5.957700327673518e-05
aa(lp2185
S'tailor'
p2186
aF5.957700327673518e-05
aa(lp2187
S'hopeless'
p2188
aF5.957700327673518e-05
aa(lp2189
S'audienc'
p2190
aF0.0013702710753649091
aa(lp2191
S'lipstick'
p2192
aF0.0
aa(lp2193
S'paean'
p2194
aF5.957700327673518e-05
aa(lp2195
S'plot'
p2196
aF0.0016681560917485851
aa(lp2197
S'shock-you-into-laught'
p2198
aF0.0
aa(lp2199
S'stainton'
p2200
aF0.0
aa(lp2201
S'diverg'
p2202
aF5.957700327673518e-05
aa(lp2203
S'camouflag'
p2204
aF0.00017873100983020553
aa(lp2205
S'thumb'
p2206
aF0.00011915400655347036
aa(lp2207
S'fleet-foot'
p2208
aF0.0
aa(lp2209
S'cocktail'
p2210
aF5.957700327673518e-05
aa(lp2211
S'boorish'
p2212
aF0.00011915400655347036
aa(lp2213
S'derring-do'
p2214
aF0.0
aa(lp2215
S'fide'
p2216
aF0.0
aa(lp2217
S'squad'
p2218
aF5.957700327673518e-05
aa(lp2219
S'rea'
p2220
aF5.957700327673518e-05
aa(lp2221
S'consol'
p2222
aF0.00011915400655347036
aa(lp2223
S'watch'
p2224
aF0.0017873100983020554
aa(lp2225
S'grasp'
p2226
aF5.957700327673518e-05
aa(lp2227
S'dreari'
p2228
aF0.00017873100983020553
aa(lp2229
S'desert'
p2230
aF5.957700327673518e-05
aa(lp2231
S'self-possess'
p2232
aF0.0
aa(lp2233
S'utterli'
p2234
aF0.00017873100983020553
aa(lp2235
S'fortun'
p2236
aF5.957700327673518e-05
aa(lp2237
S'slc'
p2238
aF0.0
aa(lp2239
S'humour'
p2240
aF0.00011915400655347036
aa(lp2241
S'africa'
p2242
aF0.0
aa(lp2243
S'imagin'
p2244
aF0.0007149240393208221
aa(lp2245
S'time'
p2246
aF0.002025618111408996
aa(lp2247
S'margarita'
p2248
aF0.00011915400655347036
aa(lp2249
S'poetic'
p2250
aF0.00011915400655347036
aa(lp2251
S'well-produc'
p2252
aF0.0
aa(lp2253
S'pocket'
p2254
aF0.0
aa(lp2255
S'half-heart'
p2256
aF5.957700327673518e-05
aa(lp2257
S'prospect'
p2258
aF5.957700327673518e-05
aa(lp2259
S'greed'
p2260
aF5.957700327673518e-05
aa(lp2261
S'qualifi'
p2262
aF5.957700327673518e-05
aa(lp2263
S'kura'
p2264
aF0.0
aa(lp2265
S'catsup'
p2266
aF5.957700327673518e-05
aa(lp2267
S'sci-fi'
p2268
aF0.00023830801310694073
aa(lp2269
S'bound'
p2270
aF5.957700327673518e-05
aa(lp2271
S'male'
p2272
aF0.00011915400655347036
aa(lp2273
S'macabr'
p2274
aF5.957700327673518e-05
aa(lp2275
S'quentin'
p2276
aF0.0
aa(lp2277
S'bloodsuck'
p2278
aF5.957700327673518e-05
aa(lp2279
S'meander'
p2280
aF0.00017873100983020553
aa(lp2281
S'nonsens'
p2282
aF0.00017873100983020553
aa(lp2283
S'profit'
p2284
aF0.0
aa(lp2285
S'dentist'
p2286
aF5.957700327673518e-05
aa(lp2287
S'yellow'
p2288
aF5.957700327673518e-05
aa(lp2289
S'consciou'
p2290
aF5.957700327673518e-05
aa(lp2291
S'1970'
p2292
aF5.957700327673518e-05
aa(lp2293
S'postur'
p2294
aF5.957700327673518e-05
aa(lp2295
S'yellow'
p2296
aF5.957700327673518e-05
aa(lp2297
S'feel'
p2298
aF0.002085195114685731
aa(lp2299
S'redon'
p2300
aF5.957700327673518e-05
aa(lp2301
S'macdowel'
p2302
aF0.00011915400655347036
aa(lp2303
S'set'
p2304
aF0.0008936550491510277
aa(lp2305
S'uma'
p2306
aF5.957700327673518e-05
aa(lp2307
S'potato'
p2308
aF5.957700327673518e-05
aa(lp2309
S'understand'
p2310
aF0.0004170390229371463
aa(lp2311
S'downward'
p2312
aF5.957700327673518e-05
aa(lp2313
S'underbelli'
p2314
aF5.957700327673518e-05
aa(lp2315
S'hardwood'
p2316
aF0.0
aa(lp2317
S'bad'
p2318
aF0.003693774203157581
aa(lp2319
S'stop'
p2320
aF0.00023830801310694073
aa(lp2321
S'low-grad'
p2322
aF5.957700327673518e-05
aa(lp2323
S'clue'
p2324
aF0.00011915400655347036
aa(lp2325
S'swagger'
p2326
aF0.0
aa(lp2327
S'phoni'
p2328
aF0.00011915400655347036
aa(lp2329
S'bother'
p2330
aF0.00017873100983020553
aa(lp2331
S'formal'
p2332
aF5.957700327673518e-05
aa(lp2333
S'render'
p2334
aF0.00011915400655347036
aa(lp2335
S'lodg'
p2336
aF5.957700327673518e-05
aa(lp2337
S'palpabl'
p2338
aF5.957700327673518e-05
aa(lp2339
S'mexican'
p2340
aF5.957700327673518e-05
aa(lp2341
S'sophomor'
p2342
aF0.00011915400655347036
aa(lp2343
S'minut'
p2344
aF0.0014894250819183796
aa(lp2345
S'choke'
p2346
aF5.957700327673518e-05
aa(lp2347
S'proverbi'
p2348
aF5.957700327673518e-05
aa(lp2349
S'peak'
p2350
aF0.00011915400655347036
aa(lp2351
S'get-go'
p2352
aF5.957700327673518e-05
aa(lp2353
S'exasper'
p2354
aF5.957700327673518e-05
aa(lp2355
S'futur'
p2356
aF0.00017873100983020553
aa(lp2357
S'thrown-togeth'
p2358
aF0.0
aa(lp2359
S'maker'
p2360
aF0.00017873100983020553
aa(lp2361
S'ticket'
p2362
aF0.00011915400655347036
aa(lp2363
S'overplay'
p2364
aF5.957700327673518e-05
aa(lp2365
S'good-bad'
p2366
aF0.0
aa(lp2367
S'outnumb'
p2368
aF0.0
aa(lp2369
S'artsploit'
p2370
aF5.957700327673518e-05
aa(lp2371
S'underway'
p2372
aF0.0
aa(lp2373
S'grossest'
p2374
aF0.0
aa(lp2375
S'\\/hollywood'
p2376
aF0.0
aa(lp2377
S'damn'
p2378
aF0.0002978850163836759
aa(lp2379
S'setup'
p2380
aF0.00011915400655347036
aa(lp2381
S'dumpl'
p2382
aF5.957700327673518e-05
aa(lp2383
S'option'
p2384
aF5.957700327673518e-05
aa(lp2385
S'opt'
p2386
aF0.00011915400655347036
aa(lp2387
S'passag'
p2388
aF5.957700327673518e-05
aa(lp2389
S'crummi'
p2390
aF0.00011915400655347036
aa(lp2391
S'thi'
p2392
aF0.008579088471849867
aa(lp2393
S'dash'
p2394
aF5.957700327673518e-05
aa(lp2395
S'resent'
p2396
aF5.957700327673518e-05
aa(lp2397
S'pedestrian'
p2398
aF0.00011915400655347036
aa(lp2399
S'rock'
p2400
aF0.00023830801310694073
aa(lp2401
S'trickster'
p2402
aF5.957700327673518e-05
aa(lp2403
S'crocodil'
p2404
aF5.957700327673518e-05
aa(lp2405
S'damn'
p2406
aF0.0002978850163836759
aa(lp2407
S'toy'
p2408
aF5.957700327673518e-05
aa(lp2409
S'unentertain'
p2410
aF5.957700327673518e-05
aa(lp2411
S'candl'
p2412
aF0.0
aa(lp2413
S'deplet'
p2414
aF0.0
aa(lp2415
S'blurri'
p2416
aF5.957700327673518e-05
aa(lp2417
S'repar'
p2418
aF5.957700327673518e-05
aa(lp2419
S'hammili'
p2420
aF5.957700327673518e-05
aa(lp2421
S'gall'
p2422
aF5.957700327673518e-05
aa(lp2423
S'meander'
p2424
aF0.00017873100983020553
aa(lp2425
S'scrape'
p2426
aF0.0
aa(lp2427
S'b.'
p2428
aF0.0
aa(lp2429
S'movi'
p2430
aF0.01000893655049151
aa(lp2431
S'fanci'
p2432
aF0.00011915400655347036
aa(lp2433
S'guillen'
p2434
aF5.957700327673518e-05
aa(lp2435
S'slum'
p2436
aF5.957700327673518e-05
aa(lp2437
S'heremakono'
p2438
aF0.0
aa(lp2439
S'degrad'
p2440
aF5.957700327673518e-05
aa(lp2441
S'lower'
p2442
aF5.957700327673518e-05
aa(lp2443
S'cull'
p2444
aF5.957700327673518e-05
aa(lp2445
S'doubt'
p2446
aF0.00017873100983020553
aa(lp2447
S'binari'
p2448
aF5.957700327673518e-05
aa(lp2449
S'scatter'
p2450
aF0.00011915400655347036
aa(lp2451
S'reckless'
p2452
aF5.957700327673518e-05
aa(lp2453
S'eventu'
p2454
aF0.00023830801310694073
aa(lp2455
S'endless'
p2456
aF0.00017873100983020553
aa(lp2457
S'\\/drama'
p2458
aF0.0
aa(lp2459
S'eyr'
p2460
aF5.957700327673518e-05
aa(lp2461
S'swiftli'
p2462
aF5.957700327673518e-05
aa(lp2463
S'indescrib'
p2464
aF5.957700327673518e-05
aa(lp2465
S'character'
p2466
aF0.00017873100983020553
aa(lp2467
S'misogyni'
p2468
aF5.957700327673518e-05
aa(lp2469
S'lodg'
p2470
aF5.957700327673518e-05
aa(lp2471
S'skirt'
p2472
aF5.957700327673518e-05
aa(lp2473
S'exactli'
p2474
aF0.00023830801310694073
aa(lp2475
S'movement'
p2476
aF0.00011915400655347036
aa(lp2477
S'doggi'
p2478
aF0.0
aa(lp2479
S'wannabe-hip'
p2480
aF5.957700327673518e-05
aa(lp2481
S'travel-ag'
p2482
aF5.957700327673518e-05
aa(lp2483
S'consid'
p2484
aF0.00017873100983020553
aa(lp2485
S'\\*\\*\\*\\*'
p2486
aF5.957700327673518e-05
aa(lp2487
S'person'
p2488
aF0.0004170390229371463
aa(lp2489
S'vapid'
p2490
aF0.00017873100983020553
aa(lp2491
S'reconcil'
p2492
aF0.0
aa(lp2493
S'toss'
p2494
aF0.00017873100983020553
aa(lp2495
S'pungent'
p2496
aF5.957700327673518e-05
aa(lp2497
S'desper'
p2498
aF0.00023830801310694073
aa(lp2499
S'toy'
p2500
aF5.957700327673518e-05
aa(lp2501
S'bullfight'
p2502
aF0.0
aa(lp2503
S'rambl'
p2504
aF0.00017873100983020553
aa(lp2505
S'hubrist'
p2506
aF0.0
aa(lp2507
S'virtuoso'
p2508
aF0.0
aa(lp2509
S'stupid'
p2510
aF0.0007745010425975573
aa(lp2511
S'pay'
p2512
aF0.0004170390229371463
aa(lp2513
S'secret'
p2514
aF0.00017873100983020553
aa(lp2515
S'peevish'
p2516
aF0.0
aa(lp2517
S'scorn'
p2518
aF5.957700327673518e-05
aa(lp2519
S'branch'
p2520
aF0.0
aa(lp2521
S'soggi'
p2522
aF0.00011915400655347036
aa(lp2523
S'bullsey'
p2524
aF0.0
aa(lp2525
S'fiendishli'
p2526
aF0.0
aa(lp2527
S'freakshow'
p2528
aF0.0
aa(lp2529
S'acolyt'
p2530
aF0.0
aa(lp2531
S'gobbl'
p2532
aF5.957700327673518e-05
aa(lp2533
S'horrif'
p2534
aF5.957700327673518e-05
aa(lp2535
S'aw'
p2536
aF0.00035746201966041106
aa(lp2537
S'concept'
p2538
aF0.0004170390229371463
aa(lp2539
S'suffer'
p2540
aF0.0005957700327673518
aa(lp2541
S'movie-of-the-week'
p2542
aF5.957700327673518e-05
aa(lp2543
S'macbeth'
p2544
aF0.0
aa(lp2545
S'reap'
p2546
aF0.0
aa(lp2547
S'conceit'
p2548
aF5.957700327673518e-05
aa(lp2549
S'happen'
p2550
aF0.00035746201966041106
aa(lp2551
S'subzero'
p2552
aF5.957700327673518e-05
aa(lp2553
S'fellow'
p2554
aF5.957700327673518e-05
aa(lp2555
S'superstar'
p2556
aF5.957700327673518e-05
aa(lp2557
S'stomach-turn'
p2558
aF5.957700327673518e-05
aa(lp2559
S'erotic'
p2560
aF5.957700327673518e-05
aa(lp2561
S'franco'
p2562
aF0.0
aa(lp2563
S'aftermath'
p2564
aF0.0
aa(lp2565
S'reek'
p2566
aF0.00011915400655347036
aa(lp2567
S'unmemor'
p2568
aF0.00011915400655347036
aa(lp2569
S'99-minut'
p2570
aF5.957700327673518e-05
aa(lp2571
S'humbl'
p2572
aF5.957700327673518e-05
aa(lp2573
S'strip-min'
p2574
aF0.0
aa(lp2575
S'blob'
p2576
aF0.0
aa(lp2577
S'acumen'
p2578
aF0.0
aa(lp2579
S'rent'
p2580
aF0.00011915400655347036
aa(lp2581
S'cheesiest'
p2582
aF5.957700327673518e-05
aa(lp2583
S'spontan'
p2584
aF5.957700327673518e-05
aa(lp2585
S'trudg'
p2586
aF5.957700327673518e-05
aa(lp2587
S'rest'
p2588
aF0.0002978850163836759
aa(lp2589
S'tortur'
p2590
aF0.00023830801310694073
aa(lp2591
S'spielbergian'
p2592
aF0.0
aa(lp2593
S'vivi'
p2594
aF0.0
aa(lp2595
S'nephew'
p2596
aF0.0
aa(lp2597
S'contriv'
p2598
aF0.0005361930294906167
aa(lp2599
S'hour'
p2600
aF0.0011319630622579685
aa(lp2601
S'bristl'
p2602
aF0.0
aa(lp2603
S'publicist'
p2604
aF0.00011915400655347036
aa(lp2605
S'bod'
p2606
aF0.0
aa(lp2607
S'terrorist'
p2608
aF5.957700327673518e-05
aa(lp2609
S'flippant'
p2610
aF0.0
aa(lp2611
S'pitfal'
p2612
aF5.957700327673518e-05
aa(lp2613
S'staci'
p2614
aF0.0
aa(lp2615
S'flaccid'
p2616
aF0.00011915400655347036
aa(lp2617
S'serv'
p2618
aF0.00035746201966041106
aa(lp2619
S'sica'
p2620
aF0.0
aa(lp2621
S'underlay'
p2622
aF0.0
aa(lp2623
S'patienc'
p2624
aF0.00017873100983020553
aa(lp2625
S'strenuous'
p2626
aF5.957700327673518e-05
aa(lp2627
S'wazoo'
p2628
aF0.0
aa(lp2629
S'desper'
p2630
aF0.00023830801310694073
aa(lp2631
S'ballesta'
p2632
aF0.0
aa(lp2633
S'horrend'
p2634
aF5.957700327673518e-05
aa(lp2635
S'bad'
p2636
aF0.003693774203157581
aa(lp2637
S'bar'
p2638
aF0.00011915400655347036
aa(lp2639
S'look-se'
p2640
aF0.0
aa(lp2641
S'waldo'
p2642
aF0.0
aa(lp2643
S'requir'
p2644
aF0.00023830801310694073
aa(lp2645
S'beg'
p2646
aF0.00011915400655347036
aa(lp2647
S'techno-trip'
p2648
aF5.957700327673518e-05
aa(lp2649
S'caton-jon'
p2650
aF0.0
aa(lp2651
S'requir'
p2652
aF0.00023830801310694073
aa(lp2653
S'dullest'
p2654
aF5.957700327673518e-05
aa(lp2655
S'all-too-familiar'
p2656
aF0.0
aa(lp2657
S'embarrass'
p2658
aF0.00023830801310694073
aa(lp2659
S'bowser'
p2660
aF0.0
aa(lp2661
S'regist'
p2662
aF0.00011915400655347036
aa(lp2663
S'over-blown'
p2664
aF5.957700327673518e-05
aa(lp2665
S'doubt'
p2666
aF0.00017873100983020553
aa(lp2667
S'clare'
p2668
aF0.0
aa(lp2669
S'washout'
p2670
aF0.0
aa(lp2671
S'unfortun'
p2672
aF0.0002978850163836759
aa(lp2673
S'deadli'
p2674
aF0.00017873100983020553
aa(lp2675
S'debilit'
p2676
aF0.0
aa(lp2677
S'freakish'
p2678
aF5.957700327673518e-05
aa(lp2679
S'model'
p2680
aF5.957700327673518e-05
aa(lp2681
S'bond'
p2682
aF0.00017873100983020553
aa(lp2683
S'immedi'
p2684
aF0.00011915400655347036
aa(lp2685
S'car'
p2686
aF0.00035746201966041106
aa(lp2687
S'yourself'
p2688
aF0.00017873100983020553
aa(lp2689
S'chaykin'
p2690
aF0.0
aa(lp2691
S'pollak'
p2692
aF5.957700327673518e-05
aa(lp2693
S'boll'
p2694
aF5.957700327673518e-05
aa(lp2695
S'predict'
p2696
aF0.0005957700327673518
aa(lp2697
S'convolut'
p2698
aF0.00011915400655347036
aa(lp2699
S'insan'
p2700
aF0.00011915400655347036
aa(lp2701
S'grinder'
p2702
aF5.957700327673518e-05
aa(lp2703
S'height'
p2704
aF5.957700327673518e-05
aa(lp2705
S'predict'
p2706
aF0.0005957700327673518
aa(lp2707
S're-releas'
p2708
aF0.0
aa(lp2709
S'buy'
p2710
aF0.00023830801310694073
aa(lp2711
S'improvis'
p2712
aF0.00011915400655347036
aa(lp2713
S'so-bad-it'
p2714
aF0.0
aa(lp2715
S'tongu'
p2716
aF5.957700327673518e-05
aa(lp2717
S'claptrap'
p2718
aF0.00011915400655347036
aa(lp2719
S'over-familiar'
p2720
aF0.0
aa(lp2721
S'air'
p2722
aF0.00017873100983020553
aa(lp2723
S'puddl'
p2724
aF5.957700327673518e-05
aa(lp2725
S'fatal'
p2726
aF0.0002978850163836759
aa(lp2727
S'aid'
p2728
aF5.957700327673518e-05
aa(lp2729
S'prescrib'
p2730
aF5.957700327673518e-05
aa(lp2731
S'way-cool'
p2732
aF0.0
aa(lp2733
S'ago'
p2734
aF0.00017873100983020553
aa(lp2735
S'seriocom'
p2736
aF0.0
aa(lp2737
S'dub'
p2738
aF0.00017873100983020553
aa(lp2739
S'a-team'
p2740
aF0.0
aa(lp2741
S'mojo'
p2742
aF0.0
aa(lp2743
S'discern'
p2744
aF0.00011915400655347036
aa(lp2745
S'orson'
p2746
aF0.0
aa(lp2747
S'sensat'
p2748
aF0.00011915400655347036
aa(lp2749
S'print'
p2750
aF0.00011915400655347036
aa(lp2751
S'quaint'
p2752
aF0.0
aa(lp2753
S'high-buf'
p2754
aF0.0
aa(lp2755
S'topic'
p2756
aF0.00011915400655347036
aa(lp2757
S'activ'
p2758
aF5.957700327673518e-05
aa(lp2759
S'fake'
p2760
aF0.00011915400655347036
aa(lp2761
S'warmed-ov'
p2762
aF5.957700327673518e-05
aa(lp2763
S'reportedli'
p2764
aF5.957700327673518e-05
aa(lp2765
S'idiot'
p2766
aF0.00023830801310694073
aa(lp2767
S'slow-pac'
p2768
aF5.957700327673518e-05
aa(lp2769
S'day-old'
p2770
aF5.957700327673518e-05
aa(lp2771
S'uptight'
p2772
aF0.0
aa(lp2773
S'gump'
p2774
aF0.0
aa(lp2775
S'crime'
p2776
aF0.0005361930294906167
aa(lp2777
S'scream'
p2778
aF0.00017873100983020553
aa(lp2779
S'repres'
p2780
aF0.00017873100983020553
aa(lp2781
S'resent'
p2782
aF5.957700327673518e-05
aa(lp2783
S'gun'
p2784
aF0.00017873100983020553
aa(lp2785
S'character'
p2786
aF0.00017873100983020553
aa(lp2787
S'lingeri'
p2788
aF0.0
aa(lp2789
S'suburban'
p2790
aF5.957700327673518e-05
aa(lp2791
S'harsh'
p2792
aF5.957700327673518e-05
aa(lp2793
S'induc'
p2794
aF5.957700327673518e-05
aa(lp2795
S'keel'
p2796
aF0.0
aa(lp2797
S'lifestyl'
p2798
aF5.957700327673518e-05
aa(lp2799
S'uncompel'
p2800
aF5.957700327673518e-05
aa(lp2801
S'\\/or'
p2802
aF0.0
aa(lp2803
S'imagin'
p2804
aF0.0007149240393208221
aa(lp2805
S'fun-for-fun'
p2806
aF0.0
aa(lp2807
S'extrem'
p2808
aF0.0004170390229371463
aa(lp2809
S'shelf'
p2810
aF5.957700327673518e-05
aa(lp2811
S'wait'
p2812
aF0.0004170390229371463
aa(lp2813
S'nicest'
p2814
aF5.957700327673518e-05
aa(lp2815
S'money'
p2816
aF0.0004170390229371463
aa(lp2817
S'jazz-play'
p2818
aF0.0
aa(lp2819
S'aggress'
p2820
aF5.957700327673518e-05
aa(lp2821
S'awe'
p2822
aF0.00011915400655347036
aa(lp2823
S'hour-and-a-half'
p2824
aF5.957700327673518e-05
aa(lp2825
S'weimar'
p2826
aF0.0
aa(lp2827
S'moat'
p2828
aF5.957700327673518e-05
aa(lp2829
S'cagney'
p2830
aF5.957700327673518e-05
aa(lp2831
S'philosoph'
p2832
aF0.00011915400655347036
aa(lp2833
S'lousi'
p2834
aF0.00023830801310694073
aa(lp2835
S'border'
p2836
aF0.00011915400655347036
aa(lp2837
S'insignific'
p2838
aF5.957700327673518e-05
aa(lp2839
S'aid'
p2840
aF5.957700327673518e-05
aa(lp2841
S"'mon"
p2842
aF0.0
aa(lp2843
S'friel'
p2844
aF0.0
aa(lp2845
S'watch'
p2846
aF0.0017873100983020554
aa(lp2847
S'sluggish'
p2848
aF0.00017873100983020553
aa(lp2849
S'frida'
p2850
aF5.957700327673518e-05
aa(lp2851
S'frozen'
p2852
aF5.957700327673518e-05
aa(lp2853
S'ingenu'
p2854
aF5.957700327673518e-05
aa(lp2855
S'eleven'
p2856
aF0.0
aa(lp2857
S'resent'
p2858
aF5.957700327673518e-05
aa(lp2859
S'prickli'
p2860
aF0.0
aa(lp2861
S'empti'
p2862
aF0.00023830801310694073
aa(lp2863
S'republ'
p2864
aF0.0
aa(lp2865
S'lifeless'
p2866
aF0.00017873100983020553
aa(lp2867
S'movi'
p2868
aF0.01000893655049151
aa(lp2869
S'dimwit'
p2870
aF0.0
aa(lp2871
S'oscar-calib'
p2872
aF0.0
aa(lp2873
S'full-fledg'
p2874
aF0.0
aa(lp2875
S'rate'
p2876
aF0.00011915400655347036
aa(lp2877
S'rat'
p2878
aF5.957700327673518e-05
aa(lp2879
S'rash'
p2880
aF5.957700327673518e-05
aa(lp2881
S'yeah'
p2882
aF0.0
aa(lp2883
S'breheni'
p2884
aF0.0
aa(lp2885
S'fail'
p2886
aF0.0008340780458742926
aa(lp2887
S'yahoo-'
p2888
aF0.0
aa(lp2889
S'stagger'
p2890
aF5.957700327673518e-05
aa(lp2891
S'self-delus'
p2892
aF0.0
aa(lp2893
S'under-10'
p2894
aF0.0
aa(lp2895
S'mouth'
p2896
aF0.00011915400655347036
aa(lp2897
S'adam'
p2898
aF0.0002978850163836759
aa(lp2899
S'quarter'
p2900
aF5.957700327673518e-05
aa(lp2901
S'disappoint'
p2902
aF0.00047661602621388145
aa(lp2903
S'woe-is-m'
p2904
aF5.957700327673518e-05
aa(lp2905
S'unequivoc'
p2906
aF5.957700327673518e-05
aa(lp2907
S'nonexist'
p2908
aF0.00011915400655347036
aa(lp2909
S'tacki'
p2910
aF0.00011915400655347036
aa(lp2911
S'paraphras'
p2912
aF5.957700327673518e-05
aa(lp2913
S'embarrass'
p2914
aF0.00023830801310694073
aa(lp2915
S'completist'
p2916
aF5.957700327673518e-05
aa(lp2917
S'ki-deok'
p2918
aF0.0
aa(lp2919
S'annex'
p2920
aF0.0
aa(lp2921
S'contradict'
p2922
aF5.957700327673518e-05
aa(lp2923
S'transmogrif'
p2924
aF0.0
aa(lp2925
S'imagin'
p2926
aF0.0007149240393208221
aa(lp2927
S'sandeman'
p2928
aF0.0
aa(lp2929
S'haphazard'
p2930
aF5.957700327673518e-05
aa(lp2931
S'mist'
p2932
aF0.0
aa(lp2933
S'fret'
p2934
aF0.0
aa(lp2935
S'pseudo-educ'
p2936
aF0.0
aa(lp2937
S'search'
p2938
aF0.00011915400655347036
aa(lp2939
S'defec'
p2940
aF0.0
aa(lp2941
S'termin'
p2942
aF5.957700327673518e-05
aa(lp2943
S'locat'
p2944
aF5.957700327673518e-05
aa(lp2945
S'masquerad'
p2946
aF5.957700327673518e-05
aa(lp2947
S'banal'
p2948
aF0.0002978850163836759
aa(lp2949
S'complet'
p2950
aF0.0008340780458742926
aa(lp2951
S'setpiec'
p2952
aF5.957700327673518e-05
aa(lp2953
S'antwon'
p2954
aF0.00017873100983020553
aa(lp2955
S'movie-go'
p2956
aF5.957700327673518e-05
aa(lp2957
S'near-imposs'
p2958
aF5.957700327673518e-05
aa(lp2959
S'kitchen-sink'
p2960
aF5.957700327673518e-05
aa(lp2961
S'megaplex'
p2962
aF5.957700327673518e-05
aa(lp2963
S'juwanna'
p2964
aF5.957700327673518e-05
aa(lp2965
S'edit'
p2966
aF0.0004170390229371463
aa(lp2967
S'humil'
p2968
aF5.957700327673518e-05
aa(lp2969
S'other'
p2970
aF0.0011319630622579685
aa(lp2971
S'botch'
p2972
aF5.957700327673518e-05
aa(lp2973
S'botch'
p2974
aF5.957700327673518e-05
aa(lp2975
S'calori'
p2976
aF0.0
aa(lp2977
S'die'
p2978
aF0.00023830801310694073
aa(lp2979
S'secondhand'
p2980
aF5.957700327673518e-05
aa(lp2981
S'ticket-buy'
p2982
aF5.957700327673518e-05
aa(lp2983
S'detent'
p2984
aF5.957700327673518e-05
aa(lp2985
S'fade'
p2986
aF5.957700327673518e-05
aa(lp2987
S'serv'
p2988
aF0.00035746201966041106
aa(lp2989
S'rotten'
p2990
aF5.957700327673518e-05
aa(lp2991
S'ving'
p2992
aF0.0
aa(lp2993
S'banzai'
p2994
aF0.0
aa(lp2995
S'rain'
p2996
aF0.00011915400655347036
aa(lp2997
S'rollerbal'
p2998
aF0.00011915400655347036
aa(lp2999
S'awkward'
p3000
aF0.00023830801310694073
aa(lp3001
S'sew'
p3002
aF0.0
aa(lp3003
S'serv'
p3004
aF0.00035746201966041106
aa(lp3005
S'wast'
p3006
aF0.0005957700327673518
aa(lp3007
S'fail'
p3008
aF0.0008340780458742926
aa(lp3009
S'agil'
p3010
aF0.0
aa(lp3011
S'preach'
p3012
aF5.957700327673518e-05
aa(lp3013
S'mann'
p3014
aF5.957700327673518e-05
aa(lp3015
S'fake'
p3016
aF0.00011915400655347036
aa(lp3017
S'churn'
p3018
aF5.957700327673518e-05
aa(lp3019
S'clueless'
p3020
aF0.00011915400655347036
aa(lp3021
S'little-known'
p3022
aF0.0
aa(lp3023
S'foul-natur'
p3024
aF5.957700327673518e-05
aa(lp3025
S'frat'
p3026
aF0.0
aa(lp3027
S'allow'
p3028
aF0.0002978850163836759
aa(lp3029
S'over-the-top'
p3030
aF0.00017873100983020553
aa(lp3031
S'fling'
p3032
aF5.957700327673518e-05
aa(lp3033
S'cassavet'
p3034
aF5.957700327673518e-05
aa(lp3035
S'hanek'
p3036
aF5.957700327673518e-05
aa(lp3037
S'realiti'
p3038
aF0.0002978850163836759
aa(lp3039
S'opposit'
p3040
aF0.00011915400655347036
aa(lp3041
S'dullard'
p3042
aF5.957700327673518e-05
aa(lp3043
S'meanspirit'
p3044
aF5.957700327673518e-05
aa(lp3045
S'fate'
p3046
aF0.00011915400655347036
aa(lp3047
S'fast'
p3048
aF0.00011915400655347036
aa(lp3049
S'evid'
p3050
aF0.00011915400655347036
aa(lp3051
S'care'
p3052
aF0.0007745010425975573
aa(lp3053
S'clement'
p3054
aF0.0
aa(lp3055
S'parton'
p3056
aF5.957700327673518e-05
aa(lp3057
S'provok'
p3058
aF0.00011915400655347036
aa(lp3059
S'tedium'
p3060
aF0.0
aa(lp3061
S'pardon'
p3062
aF0.0
aa(lp3063
S'guid'
p3064
aF0.00011915400655347036
aa(lp3065
S'blast'
p3066
aF5.957700327673518e-05
aa(lp3067
S'topless'
p3068
aF5.957700327673518e-05
aa(lp3069
S'petrovich'
p3070
aF0.0
aa(lp3071
S'school'
p3072
aF0.0004170390229371463
aa(lp3073
S'pave'
p3074
aF0.0
aa(lp3075
S'surrend'
p3076
aF5.957700327673518e-05
aa(lp3077
S'automat'
p3078
aF5.957700327673518e-05
aa(lp3079
S'hudlin'
p3080
aF5.957700327673518e-05
aa(lp3081
S'restroom'
p3082
aF5.957700327673518e-05
aa(lp3083
S'render'
p3084
aF0.00011915400655347036
aa(lp3085
S'punish'
p3086
aF0.00011915400655347036
aa(lp3087
S'conveni'
p3088
aF0.00011915400655347036
aa(lp3089
S'hunk'
p3090
aF5.957700327673518e-05
aa(lp3091
S'lung'
p3092
aF0.0
aa(lp3093
S'misdemeanor'
p3094
aF5.957700327673518e-05
aa(lp3095
S'mould'
p3096
aF0.0
aa(lp3097
S'wait'
p3098
aF0.0004170390229371463
aa(lp3099
S'slur'
p3100
aF5.957700327673518e-05
aa(lp3101
S'aloof'
p3102
aF5.957700327673518e-05
aa(lp3103
S'archiv'
p3104
aF5.957700327673518e-05
aa(lp3105
S'travers'
p3106
aF0.0
aa(lp3107
S'captain'
p3108
aF5.957700327673518e-05
aa(lp3109
S'stupid'
p3110
aF0.0007745010425975573
aa(lp3111
S'clueless'
p3112
aF0.00011915400655347036
aa(lp3113
S'unbear'
p3114
aF0.00017873100983020553
aa(lp3115
S'unbear'
p3116
aF0.00017873100983020553
aa(lp3117
S'lunch'
p3118
aF5.957700327673518e-05
aa(lp3119
S'title-bout'
p3120
aF0.0
aa(lp3121
S'expect'
p3122
aF0.0005957700327673518
aa(lp3123
S'archiv'
p3124
aF5.957700327673518e-05
aa(lp3125
S'i-heard-a-jok'
p3126
aF5.957700327673518e-05
aa(lp3127
S'minor-leagu'
p3128
aF0.0
aa(lp3129
S'monkey'
p3130
aF5.957700327673518e-05
aa(lp3131
S'cosby-seinfeld'
p3132
aF0.0
aa(lp3133
S'tree'
p3134
aF5.957700327673518e-05
aa(lp3135
S'tire'
p3136
aF0.00035746201966041106
aa(lp3137
S'logic'
p3138
aF0.00023830801310694073
aa(lp3139
S'onscreen'
p3140
aF0.00011915400655347036
aa(lp3141
S'lunar'
p3142
aF5.957700327673518e-05
aa(lp3143
S'sooooo'
p3144
aF5.957700327673518e-05
aa(lp3145
S'junior'
p3146
aF5.957700327673518e-05
aa(lp3147
S'uglier'
p3148
aF0.0
aa(lp3149
S'norwegian'
p3150
aF0.0
aa(lp3151
S'patriarch'
p3152
aF0.0
aa(lp3153
S'macho'
p3154
aF5.957700327673518e-05
aa(lp3155
S'unlik'
p3156
aF0.0002978850163836759
aa(lp3157
S'leash'
p3158
aF5.957700327673518e-05
aa(lp3159
S'refus'
p3160
aF0.00011915400655347036
aa(lp3161
S'script'
p3162
aF0.0013702710753649091
aa(lp3163
S'shambl'
p3164
aF5.957700327673518e-05
aa(lp3165
S'curmudgeon'
p3166
aF5.957700327673518e-05
aa(lp3167
S'depress'
p3168
aF0.0002978850163836759
aa(lp3169
S'yarn-spinn'
p3170
aF0.0
aa(lp3171
S'realiti'
p3172
aF0.0002978850163836759
aa(lp3173
S'depress'
p3174
aF0.0002978850163836759
aa(lp3175
S'character'
p3176
aF0.00017873100983020553
aa(lp3177
S'futur'
p3178
aF0.00017873100983020553
aa(lp3179
S'idea'
p3180
aF0.0008340780458742926
aa(lp3181
S'tango'
p3182
aF0.0
aa(lp3183
S'ground'
p3184
aF0.00011915400655347036
aa(lp3185
S'spin-off'
p3186
aF5.957700327673518e-05
aa(lp3187
S'bray'
p3188
aF5.957700327673518e-05
aa(lp3189
S'fuell'
p3190
aF0.0
aa(lp3191
S'improv'
p3192
aF0.00017873100983020553
aa(lp3193
S'prank'
p3194
aF0.0
aa(lp3195
S'slump'
p3196
aF0.0
aa(lp3197
S'slickli'
p3198
aF0.0
aa(lp3199
S'corner'
p3200
aF0.00011915400655347036
aa(lp3201
S'rag'
p3202
aF5.957700327673518e-05
aa(lp3203
S'1970'
p3204
aF5.957700327673518e-05
aa(lp3205
S'a-knock'
p3206
aF0.0
aa(lp3207
S'1972'
p3208
aF0.0
aa(lp3209
S'tedious'
p3210
aF5.957700327673518e-05
aa(lp3211
S'1989'
p3212
aF0.0
aa(lp3213
S'1995'
p3214
aF0.0
aa(lp3215
S'1997'
p3216
aF0.0
aa(lp3217
S'testosterone-charg'
p3218
aF5.957700327673518e-05
aa(lp3219
S'extrem'
p3220
aF0.0004170390229371463
aa(lp3221
S'super-seri'
p3222
aF5.957700327673518e-05
aa(lp3223
S'concoct'
p3224
aF0.00011915400655347036
aa(lp3225
S'attal'
p3226
aF5.957700327673518e-05
aa(lp3227
S'coma-lik'
p3228
aF0.0
aa(lp3229
S'estrogen'
p3230
aF0.0
aa(lp3231
S'jackass'
p3232
aF0.00011915400655347036
aa(lp3233
S'stinker'
p3234
aF0.00017873100983020553
aa(lp3235
S'90-minut'
p3236
aF5.957700327673518e-05
aa(lp3237
S'decent-enough'
p3238
aF0.0
aa(lp3239
S'schoolboy'
p3240
aF0.0
aa(lp3241
S'command'
p3242
aF0.0
aa(lp3243
S'boundless'
p3244
aF0.0
aa(lp3245
S'workshop'
p3246
aF0.00011915400655347036
aa(lp3247
S'elbow'
p3248
aF5.957700327673518e-05
aa(lp3249
S'skinni'
p3250
aF0.0
aa(lp3251
S'unaccount'
p3252
aF0.0
aa(lp3253
S'geneviev'
p3254
aF5.957700327673518e-05
aa(lp3255
S'reject'
p3256
aF0.00017873100983020553
aa(lp3257
S'guis'
p3258
aF5.957700327673518e-05
aa(lp3259
S'make-believ'
p3260
aF0.0
aa(lp3261
S'poo-poo'
p3262
aF5.957700327673518e-05
aa(lp3263
S'retool'
p3264
aF5.957700327673518e-05
aa(lp3265
S'deriv'
p3266
aF0.0002978850163836759
aa(lp3267
S'deriv'
p3268
aF0.0002978850163836759
aa(lp3269
S'brash'
p3270
aF5.957700327673518e-05
aa(lp3271
S'reach'
p3272
aF0.00017873100983020553
aa(lp3273
S'100-year'
p3274
aF0.0
aa(lp3275
S'directionless'
p3276
aF5.957700327673518e-05
aa(lp3277
S'hospit'
p3278
aF5.957700327673518e-05
aa(lp3279
S'reach'
p3280
aF0.00017873100983020553
aa(lp3281
S'entir'
p3282
aF0.0005361930294906167
aa(lp3283
S'toler'
p3284
aF0.00017873100983020553
aa(lp3285
S'screwbal'
p3286
aF5.957700327673518e-05
aa(lp3287
S'anti-viru'
p3288
aF0.0
aa(lp3289
S'slapdash'
p3290
aF0.00011915400655347036
aa(lp3291
S'unlik'
p3292
aF0.0002978850163836759
aa(lp3293
S'dahmer'
p3294
aF0.00017873100983020553
aa(lp3295
S'phoenix'
p3296
aF5.957700327673518e-05
aa(lp3297
S'purer'
p3298
aF0.0
aa(lp3299
S'drug'
p3300
aF0.00023830801310694073
aa(lp3301
S'prepackag'
p3302
aF5.957700327673518e-05
aa(lp3303
S'terribl'
p3304
aF0.00047661602621388145
aa(lp3305
S'terribl'
p3306
aF0.00047661602621388145
aa(lp3307
S'machineri'
p3308
aF0.0
aa(lp3309
S'press'
p3310
aF0.00011915400655347036
aa(lp3311
S'diabol'
p3312
aF5.957700327673518e-05
aa(lp3313
S'audienc'
p3314
aF0.0013702710753649091
aa(lp3315
S'money'
p3316
aF0.0004170390229371463
aa(lp3317
S'rate'
p3318
aF0.00011915400655347036
aa(lp3319
S'disobedi'
p3320
aF0.0
aa(lp3321
S'requir'
p3322
aF0.00023830801310694073
aa(lp3323
S'aptitud'
p3324
aF5.957700327673518e-05
aa(lp3325
S'so-five-minutes-ago'
p3326
aF5.957700327673518e-05
aa(lp3327
S'stereo'
p3328
aF5.957700327673518e-05
aa(lp3329
S'stoop'
p3330
aF0.00011915400655347036
aa(lp3331
S'execut'
p3332
aF0.0004170390229371463
aa(lp3333
S'giant'
p3334
aF0.00011915400655347036
aa(lp3335
S'ruthlessli'
p3336
aF0.0
aa(lp3337
S'morbid'
p3338
aF0.00011915400655347036
aa(lp3339
S'attract'
p3340
aF0.0002978850163836759
aa(lp3341
S'revers'
p3342
aF5.957700327673518e-05
aa(lp3343
S'placement'
p3344
aF5.957700327673518e-05
aa(lp3345
S'drag'
p3346
aF0.0004170390229371463
aa(lp3347
S'prom'
p3348
aF5.957700327673518e-05
aa(lp3349
S'overdo'
p3350
aF0.0
aa(lp3351
S'botch'
p3352
aF5.957700327673518e-05
aa(lp3353
S'humorless'
p3354
aF0.00017873100983020553
aa(lp3355
S'undistinguish'
p3356
aF5.957700327673518e-05
aa(lp3357
S'populist'
p3358
aF0.0
aa(lp3359
S'charact'
p3360
aF0.002323503127792672
aa(lp3361
S'chirpi'
p3362
aF5.957700327673518e-05
aa(lp3363
S"'70"
p3364
aF0.00011915400655347036
aa(lp3365
S'drek'
p3366
aF5.957700327673518e-05
aa(lp3367
S'wait'
p3368
aF0.0004170390229371463
aa(lp3369
S'wail'
p3370
aF0.0
aa(lp3371
S'pathet'
p3372
aF0.00035746201966041106
aa(lp3373
S'bluescreen'
p3374
aF5.957700327673518e-05
aa(lp3375
S'rocket'
p3376
aF5.957700327673518e-05
aa(lp3377
S'shenanigan'
p3378
aF5.957700327673518e-05
aa(lp3379
S'meat'
p3380
aF5.957700327673518e-05
aa(lp3381
S'closed-door'
p3382
aF5.957700327673518e-05
aa(lp3383
S'cuisin'
p3384
aF0.0
aa(lp3385
S'apt'
p3386
aF5.957700327673518e-05
aa(lp3387
S'sensat'
p3388
aF0.00011915400655347036
aa(lp3389
S'awaken'
p3390
aF5.957700327673518e-05
aa(lp3391
S'lecter'
p3392
aF5.957700327673518e-05
aa(lp3393
S'groupie\\/scholar'
p3394
aF0.0
aa(lp3395
S'wade'
p3396
aF5.957700327673518e-05
aa(lp3397
S'raw-nerv'
p3398
aF0.0
aa(lp3399
S'bridg'
p3400
aF5.957700327673518e-05
aa(lp3401
S'swept'
p3402
aF5.957700327673518e-05
aa(lp3403
S'throe'
p3404
aF5.957700327673518e-05
aa(lp3405
S'giant'
p3406
aF0.00011915400655347036
aa(lp3407
S'retool'
p3408
aF5.957700327673518e-05
aa(lp3409
S'inquisit'
p3410
aF5.957700327673518e-05
aa(lp3411
S'recept'
p3412
aF0.0
aa(lp3413
S'durat'
p3414
aF5.957700327673518e-05
aa(lp3415
S'guid'
p3416
aF0.00011915400655347036
aa(lp3417
S'avalanch'
p3418
aF5.957700327673518e-05
aa(lp3419
S'well-worn'
p3420
aF0.0
aa(lp3421
S'turd'
p3422
aF0.00011915400655347036
aa(lp3423
S'afraid'
p3424
aF0.00011915400655347036
aa(lp3425
S'bore'
p3426
aF0.0007745010425975573
aa(lp3427
S'splash'
p3428
aF0.00011915400655347036
aa(lp3429
S'boss'
p3430
aF5.957700327673518e-05
aa(lp3431
S'time'
p3432
aF0.002025618111408996
aa(lp3433
S'label'
p3434
aF5.957700327673518e-05
aa(lp3435
S'sever'
p3436
aF0.000655347036044087
aa(lp3437
S'glare'
p3438
aF0.00017873100983020553
aa(lp3439
S'plainli'
p3440
aF5.957700327673518e-05
aa(lp3441
S'odor'
p3442
aF5.957700327673518e-05
aa(lp3443
S'boho'
p3444
aF5.957700327673518e-05
aa(lp3445
S'expect'
p3446
aF0.0005957700327673518
aa(lp3447
S'consid'
p3448
aF0.00017873100983020553
aa(lp3449
S'looney'
p3450
aF0.0
aa(lp3451
S'trace'
p3452
aF5.957700327673518e-05
aa(lp3453
S'boil'
p3454
aF5.957700327673518e-05
aa(lp3455
S'latter'
p3456
aF0.00011915400655347036
aa(lp3457
S'kiddi'
p3458
aF5.957700327673518e-05
aa(lp3459
S'wholli'
p3460
aF0.00011915400655347036
aa(lp3461
S'goos'
p3462
aF5.957700327673518e-05
aa(lp3463
S'bolt'
p3464
aF0.0
aa(lp3465
S'nebrida'
p3466
aF5.957700327673518e-05
aa(lp3467
S'stockwel'
p3468
aF0.0
aa(lp3469
S'flail'
p3470
aF0.00011915400655347036
aa(lp3471
S'bomb'
p3472
aF0.00011915400655347036
aa(lp3473
S'thirty-thre'
p3474
aF5.957700327673518e-05
aa(lp3475
S'bond'
p3476
aF0.00017873100983020553
aa(lp3477
S'bona'
p3478
aF0.0
aa(lp3479
S'vittorio'
p3480
aF0.0
aa(lp3481
S'unrel'
p3482
aF5.957700327673518e-05
aa(lp3483
S'working-class'
p3484
aF0.00011915400655347036
aa(lp3485
S'star-stud'
p3486
aF0.0
aa(lp3487
S'shoot'
p3488
aF0.00023830801310694073
aa(lp3489
S'irredeem'
p3490
aF5.957700327673518e-05
aa(lp3491
S'bestow'
p3492
aF5.957700327673518e-05
aa(lp3493
S'activ'
p3494
aF5.957700327673518e-05
aa(lp3495
S'half-ass'
p3496
aF0.0
aa(lp3497
S'viewer'
p3498
aF0.000655347036044087
aa(lp3499
S'damag'
p3500
aF0.00011915400655347036
aa(lp3501
S'resolut'
p3502
aF0.00017873100983020553
aa(lp3503
S'assault'
p3504
aF0.00011915400655347036
aa(lp3505
S'activ'
p3506
aF5.957700327673518e-05
aa(lp3507
S'spawn'
p3508
aF5.957700327673518e-05
aa(lp3509
S'hanky-panki'
p3510
aF5.957700327673518e-05
aa(lp3511
S'deprav'
p3512
aF0.00017873100983020553
aa(lp3513
S'hip'
p3514
aF0.00023830801310694073
aa(lp3515
S'pessim'
p3516
aF5.957700327673518e-05
aa(lp3517
S'rip-roar'
p3518
aF0.0
aa(lp3519
S'medicin'
p3520
aF5.957700327673518e-05
aa(lp3521
S'skid-row'
p3522
aF0.0
aa(lp3523
S'pretenti'
p3524
aF0.00035746201966041106
aa(lp3525
S'swoon'
p3526
aF0.0
aa(lp3527
S'monstrou'
p3528
aF5.957700327673518e-05
aa(lp3529
S'gonna'
p3530
aF0.0
aa(lp3531
S'doze'
p3532
aF0.0002978850163836759
aa(lp3533
S'freshen'
p3534
aF0.0
aa(lp3535
S'atroc'
p3536
aF5.957700327673518e-05
aa(lp3537
S'jewish'
p3538
aF5.957700327673518e-05
aa(lp3539
S'well-character'
p3540
aF0.0
aa(lp3541
S'scandal'
p3542
aF0.0
aa(lp3543
S'dot'
p3544
aF5.957700327673518e-05
aa(lp3545
S'meaningless'
p3546
aF0.00011915400655347036
aa(lp3547
S'19th-centuri'
p3548
aF5.957700327673518e-05
aa(lp3549
S'cunningham'
p3550
aF0.0
aa(lp3551
S'ballist'
p3552
aF0.00011915400655347036
aa(lp3553
S'homophobia'
p3554
aF0.0
aa(lp3555
S'immedi'
p3556
aF0.00011915400655347036
aa(lp3557
S'bypass'
p3558
aF5.957700327673518e-05
aa(lp3559
S'gaieti'
p3560
aF0.0
aa(lp3561
S'unsympathet'
p3562
aF0.00011915400655347036
aa(lp3563
S'storylin'
p3564
aF0.00011915400655347036
aa(lp3565
S'delet'
p3566
aF0.00011915400655347036
aa(lp3567
S'juri'
p3568
aF0.0
aa(lp3569
S'showgirl'
p3570
aF5.957700327673518e-05
aa(lp3571
S'toss'
p3572
aF0.00017873100983020553
aa(lp3573
S'gun'
p3574
aF0.00017873100983020553
aa(lp3575
S'coaster'
p3576
aF0.0
aa(lp3577
S'junk'
p3578
aF0.00023830801310694073
aa(lp3579
S'pooti'
p3580
aF5.957700327673518e-05
aa(lp3581
S'colleg'
p3582
aF0.0002978850163836759
aa(lp3583
S'person'
p3584
aF0.0004170390229371463
aa(lp3585
S'stoop'
p3586
aF0.00011915400655347036
aa(lp3587
S'singl'
p3588
aF0.00047661602621388145
aa(lp3589
S'sole'
p3590
aF5.957700327673518e-05
aa(lp3591
S'fortun'
p3592
aF5.957700327673518e-05
aa(lp3593
S'artifici'
p3594
aF0.00011915400655347036
aa(lp3595
S'mechan'
p3596
aF0.00011915400655347036
aa(lp3597
S'murki'
p3598
aF5.957700327673518e-05
aa(lp3599
S'runaway'
p3600
aF0.0
aa(lp3601
S'logist'
p3602
aF5.957700327673518e-05
aa(lp3603
S'violenc'
p3604
aF0.0002978850163836759
aa(lp3605
S'note'
p3606
aF0.00017873100983020553
aa(lp3607
S'glori'
p3608
aF0.00011915400655347036
aa(lp3609
S'evangel'
p3610
aF0.0
aa(lp3611
S'maker'
p3612
aF0.00017873100983020553
aa(lp3613
S'aw'
p3614
aF0.00035746201966041106
aa(lp3615
S'collect'
p3616
aF0.00023830801310694073
aa(lp3617
S'ici'
p3618
aF5.957700327673518e-05
aa(lp3619
S'expect'
p3620
aF0.0005957700327673518
aa(lp3621
S'toss'
p3622
aF0.00017873100983020553
aa(lp3623
S'reach'
p3624
aF0.00017873100983020553
aa(lp3625
S'forgotten'
p3626
aF0.00011915400655347036
aa(lp3627
S'benigni'
p3628
aF0.00017873100983020553
aa(lp3629
S'bandera'
p3630
aF5.957700327673518e-05
aa(lp3631
S'mcconaughey'
p3632
aF0.0
aa(lp3633
S'low'
p3634
aF0.0004170390229371463
aa(lp3635
S'loud'
p3636
aF0.00047661602621388145
aa(lp3637
S'stillborn'
p3638
aF5.957700327673518e-05
aa(lp3639
S'catastroph'
p3640
aF0.0
aa(lp3641
S'ultra-loud'
p3642
aF5.957700327673518e-05
aa(lp3643
S'lose'
p3644
aF0.0002978850163836759
aa(lp3645
S'metropolitan'
p3646
aF5.957700327673518e-05
aa(lp3647
S'yank'
p3648
aF5.957700327673518e-05
aa(lp3649
S'render'
p3650
aF0.00011915400655347036
aa(lp3651
S'ho'
p3652
aF0.00011915400655347036
aa(lp3653
S'hot'
p3654
aF0.00017873100983020553
aa(lp3655
S'indomit'
p3656
aF0.0
aa(lp3657
S'punk'
p3658
aF5.957700327673518e-05
aa(lp3659
S'damag'
p3660
aF0.00011915400655347036
aa(lp3661
S'exhum'
p3662
aF0.0
aa(lp3663
S'poorli'
p3664
aF0.00047661602621388145
aa(lp3665
S'amount'
p3666
aF0.00047661602621388145
aa(lp3667
S'wizardri'
p3668
aF5.957700327673518e-05
aa(lp3669
S'senseless'
p3670
aF5.957700327673518e-05
aa(lp3671
S'pump'
p3672
aF0.0
aa(lp3673
S'cornbal'
p3674
aF0.0
aa(lp3675
S'farenheit'
p3676
aF0.0
aa(lp3677
S'brand-new'
p3678
aF0.0
aa(lp3679
S'bombshel'
p3680
aF0.0
aa(lp3681
S'knit'
p3682
aF5.957700327673518e-05
aa(lp3683
S'smoker'
p3684
aF0.0
aa(lp3685
S'wast'
p3686
aF0.0005957700327673518
aa(lp3687
S'waster'
p3688
aF5.957700327673518e-05
aa(lp3689
S'wast'
p3690
aF0.0005957700327673518
aa(lp3691
S'unsuspect'
p3692
aF5.957700327673518e-05
aa(lp3693
S'seattl'
p3694
aF0.0
aa(lp3695
S'fisher'
p3696
aF0.00017873100983020553
aa(lp3697
S'contend'
p3698
aF0.00011915400655347036
aa(lp3699
S'fiend'
p3700
aF0.0
aa(lp3701
S'besot'
p3702
aF5.957700327673518e-05
aa(lp3703
S'attract'
p3704
aF0.0002978850163836759
aa(lp3705
S'attract'
p3706
aF0.0002978850163836759
aa(lp3707
S'game'
p3708
aF0.00035746201966041106
aa(lp3709
S'set'
p3710
aF0.0008936550491510277
aa(lp3711
S'luck'
p3712
aF5.957700327673518e-05
aa(lp3713
S'eck'
p3714
aF0.00011915400655347036
aa(lp3715
S'equilibrium'
p3716
aF0.00011915400655347036
aa(lp3717
S'ventur'
p3718
aF5.957700327673518e-05
aa(lp3719
S'paean'
p3720
aF5.957700327673518e-05
aa(lp3721
S'notat'
p3722
aF0.0
aa(lp3723
S'fairy-tal'
p3724
aF5.957700327673518e-05
aa(lp3725
S'drag'
p3726
aF0.0004170390229371463
aa(lp3727
S'deriv'
p3728
aF0.0002978850163836759
aa(lp3729
S'splash'
p3730
aF0.00011915400655347036
aa(lp3731
S'improv'
p3732
aF0.00017873100983020553
aa(lp3733
S'iwai'
p3734
aF5.957700327673518e-05
aa(lp3735
S'sever'
p3736
aF0.000655347036044087
aa(lp3737
S'workman'
p3738
aF0.0
aa(lp3739
S'damag'
p3740
aF0.00011915400655347036
aa(lp3741
S'heyday'
p3742
aF5.957700327673518e-05
aa(lp3743
S'insan'
p3744
aF0.00011915400655347036
aa(lp3745
S'ham-fist'
p3746
aF5.957700327673518e-05
aa(lp3747
S'schedul'
p3748
aF5.957700327673518e-05
aa(lp3749
S'brazen'
p3750
aF5.957700327673518e-05
aa(lp3751
S'etc'
p3752
aF0.0
aa(lp3753
S'abysm'
p3754
aF5.957700327673518e-05
aa(lp3755
S'bruckheim'
p3756
aF5.957700327673518e-05
aa(lp3757
S'loose-joint'
p3758
aF0.0
aa(lp3759
S'misus'
p3760
aF5.957700327673518e-05
aa(lp3761
S'blip'
p3762
aF5.957700327673518e-05
aa(lp3763
S'uproar'
p3764
aF5.957700327673518e-05
aa(lp3765
S'cloak'
p3766
aF5.957700327673518e-05
aa(lp3767
S'semi-autobiograph'
p3768
aF5.957700327673518e-05
aa(lp3769
S'masquerad'
p3770
aF5.957700327673518e-05
aa(lp3771
S'iraqi'
p3772
aF0.0
aa(lp3773
S'discern'
p3774
aF0.00011915400655347036
aa(lp3775
S'sacrific'
p3776
aF5.957700327673518e-05
aa(lp3777
S'beavi'
p3778
aF0.0
aa(lp3779
S'cello'
p3780
aF5.957700327673518e-05
aa(lp3781
S'aggress'
p3782
aF5.957700327673518e-05
aa(lp3783
S'sacrif'
p3784
aF5.957700327673518e-05
aa(lp3785
S'91-minut'
p3786
aF5.957700327673518e-05
aa(lp3787
S'bleak'
p3788
aF0.00017873100983020553
aa(lp3789
S'soulless'
p3790
aF0.00035746201966041106
aa(lp3791
S'super-stupid'
p3792
aF5.957700327673518e-05
aa(lp3793
S'adam'
p3794
aF0.0002978850163836759
aa(lp3795
S'fatal'
p3796
aF0.0002978850163836759
aa(lp3797
S'nonstop'
p3798
aF5.957700327673518e-05
aa(lp3799
S'edit'
p3800
aF0.0004170390229371463
aa(lp3801
S'smorgasbord'
p3802
aF5.957700327673518e-05
aa(lp3803
S'unstint'
p3804
aF0.0
aa(lp3805
S'irrespons'
p3806
aF5.957700327673518e-05
aa(lp3807
S'libretto'
p3808
aF0.0
aa(lp3809
S'indict'
p3810
aF5.957700327673518e-05
aa(lp3811
S'fraction'
p3812
aF5.957700327673518e-05
aa(lp3813
S'heavy-hand'
p3814
aF0.00017873100983020553
aa(lp3815
S'central'
p3816
aF0.00023830801310694073
aa(lp3817
S'opera-ish'
p3818
aF5.957700327673518e-05
aa(lp3819
S'gap'
p3820
aF5.957700327673518e-05
aa(lp3821
S'talent'
p3822
aF0.000655347036044087
aa(lp3823
S'dupe'
p3824
aF5.957700327673518e-05
aa(lp3825
S'locat'
p3826
aF5.957700327673518e-05
aa(lp3827
S'banal'
p3828
aF0.0002978850163836759
aa(lp3829
S'unassum'
p3830
aF5.957700327673518e-05
aa(lp3831
S'squirm-induc'
p3832
aF0.0
aa(lp3833
S'pretend'
p3834
aF0.00017873100983020553
aa(lp3835
S'cotton'
p3836
aF5.957700327673518e-05
aa(lp3837
S'project'
p3838
aF0.00035746201966041106
aa(lp3839
S'swipe'
p3840
aF5.957700327673518e-05
aa(lp3841
S'hanna-barbera'
p3842
aF5.957700327673518e-05
aa(lp3843
S'expect'
p3844
aF0.0005957700327673518
aa(lp3845
S'pummel'
p3846
aF0.0
aa(lp3847
S'cold-heart'
p3848
aF5.957700327673518e-05
aa(lp3849
S'effect'
p3850
aF0.000655347036044087
aa(lp3851
S'projectil'
p3852
aF5.957700327673518e-05
aa(lp3853
S'the-night'
p3854
aF0.0
aa(lp3855
S'facet'
p3856
aF5.957700327673518e-05
aa(lp3857
S'cannib'
p3858
aF5.957700327673518e-05
aa(lp3859
S'beij'
p3860
aF0.0
aa(lp3861
S'pillowcas'
p3862
aF5.957700327673518e-05
aa(lp3863
S'inclin'
p3864
aF0.00011915400655347036
aa(lp3865
S'dumb'
p3866
aF0.0004170390229371463
aa(lp3867
S'lust'
p3868
aF5.957700327673518e-05
aa(lp3869
S'stick'
p3870
aF0.0002978850163836759
aa(lp3871
S'dull'
p3872
aF0.0013702710753649091
aa(lp3873
S'misunderstand'
p3874
aF0.0
aa(lp3875
S'time'
p3876
aF0.002025618111408996
aa(lp3877
S'made-for-tv'
p3878
aF5.957700327673518e-05
aa(lp3879
S"'n'"
p3880
aF0.0
aa(lp3881
S"'ll"
p3882
aF0.0009532320524277629
aa(lp3883
S'chanukah'
p3884
aF0.0
aa(lp3885
S'clown'
p3886
aF5.957700327673518e-05
aa(lp3887
S'slap-happi'
p3888
aF5.957700327673518e-05
aa(lp3889
S'star-mak'
p3890
aF0.0
aa(lp3891
S'suicid'
p3892
aF0.0
aa(lp3893
S'effect'
p3894
aF0.000655347036044087
aa(lp3895
S'affabl'
p3896
aF5.957700327673518e-05
aa(lp3897
S'fetishist'
p3898
aF5.957700327673518e-05
aa(lp3899
S'lull'
p3900
aF5.957700327673518e-05
aa(lp3901
S'pass'
p3902
aF0.0002978850163836759
aa(lp3903
S'dud'
p3904
aF0.00017873100983020553
aa(lp3905
S'\\/coming-out'
p3906
aF0.0
aa(lp3907
S'fragment'
p3908
aF0.00017873100983020553
aa(lp3909
S'friedman'
p3910
aF0.0
aa(lp3911
S'chiefli'
p3912
aF5.957700327673518e-05
aa(lp3913
S'hour'
p3914
aF0.0011319630622579685
aa(lp3915
S'a.c.'
p3916
aF5.957700327673518e-05
aa(lp3917
S'kirshner'
p3918
aF5.957700327673518e-05
aa(lp3919
S'contriv'
p3920
aF0.0005361930294906167
aa(lp3921
S'dad'
p3922
aF5.957700327673518e-05
aa(lp3923
S'seemingli'
p3924
aF0.00011915400655347036
aa(lp3925
S'thumb'
p3926
aF0.00011915400655347036
aa(lp3927
S'secret'
p3928
aF0.00017873100983020553
aa(lp3929
S'offset'
p3930
aF5.957700327673518e-05
aa(lp3931
S'bind'
p3932
aF0.0
aa(lp3933
S'fold'
p3934
aF5.957700327673518e-05
aa(lp3935
S'redeem'
p3936
aF0.00011915400655347036
aa(lp3937
S'unrealist'
p3938
aF0.0
aa(lp3939
S'flex-a-thon'
p3940
aF0.0
aa(lp3941
S'subplot'
p3942
aF5.957700327673518e-05
aa(lp3943
S'margot'
p3944
aF0.0
aa(lp3945
S'screenwrit'
p3946
aF0.0005361930294906167
aa(lp3947
S'resolut'
p3948
aF0.00017873100983020553
aa(lp3949
S'equip'
p3950
aF5.957700327673518e-05
aa(lp3951
S'oblig'
p3952
aF5.957700327673518e-05
aa(lp3953
S'model'
p3954
aF5.957700327673518e-05
aa(lp3955
S'swear'
p3956
aF5.957700327673518e-05
aa(lp3957
S'volletta'
p3958
aF0.0
aa(lp3959
S'sweat'
p3960
aF5.957700327673518e-05
aa(lp3961
S'drung'
p3962
aF0.0
aa(lp3963
S'incoher'
p3964
aF0.00047661602621388145
aa(lp3965
S'elbow'
p3966
aF5.957700327673518e-05
aa(lp3967
S'nicklebi'
p3968
aF0.00011915400655347036
aa(lp3969
S'barb'
p3970
aF5.957700327673518e-05
aa(lp3971
S'distast'
p3972
aF0.00011915400655347036
aa(lp3973
S'fade'
p3974
aF5.957700327673518e-05
aa(lp3975
S'behead'
p3976
aF0.0
aa(lp3977
S'cri'
p3978
aF0.00011915400655347036
aa(lp3979
S'vapor'
p3980
aF5.957700327673518e-05
aa(lp3981
S'secret'
p3982
aF0.00017873100983020553
aa(lp3983
S'earplug'
p3984
aF5.957700327673518e-05
aa(lp3985
S'blame'
p3986
aF5.957700327673518e-05
aa(lp3987
S'drug'
p3988
aF0.00023830801310694073
aa(lp3989
S'hour'
p3990
aF0.0011319630622579685
aa(lp3991
S'byzantin'
p3992
aF5.957700327673518e-05
aa(lp3993
S'oper'
p3994
aF5.957700327673518e-05
aa(lp3995
S'extrem'
p3996
aF0.0004170390229371463
aa(lp3997
S'mediterranean'
p3998
aF0.0
aa(lp3999
S'rain'
p4000
aF0.00011915400655347036
aa(lp4001
S'\\/director'
p4002
aF0.0
aa(lp4003
S'shoot'
p4004
aF0.00023830801310694073
aa(lp4005
S'convert'
p4006
aF5.957700327673518e-05
aa(lp4007
S'inspector'
p4008
aF0.0
aa(lp4009
S'blast'
p4010
aF5.957700327673518e-05
aa(lp4011
S"'90"
p4012
aF0.0
aa(lp4013
S'significantli'
p4014
aF0.0
aa(lp4015
S'punit'
p4016
aF5.957700327673518e-05
aa(lp4017
S'ear'
p4018
aF0.00011915400655347036
aa(lp4019
S'collect'
p4020
aF0.00023830801310694073
aa(lp4021
S'squint'
p4022
aF0.0
aa(lp4023
S'unlaugh'
p4024
aF5.957700327673518e-05
aa(lp4025
S'care'
p4026
aF0.0007745010425975573
aa(lp4027
S'amor'
p4028
aF0.0
aa(lp4029
S'island'
p4030
aF5.957700327673518e-05
aa(lp4031
S'topic'
p4032
aF0.00011915400655347036
aa(lp4033
S'nubil'
p4034
aF5.957700327673518e-05
aa(lp4035
S'ladi'
p4036
aF0.00011915400655347036
aa(lp4037
S'seri'
p4038
aF0.00047661602621388145
aa(lp4039
S'mutter'
p4040
aF5.957700327673518e-05
aa(lp4041
S'champagn'
p4042
aF0.0
aa(lp4043
S'outcom'
p4044
aF5.957700327673518e-05
aa(lp4045
S'dognini'
p4046
aF0.0
aa(lp4047
S'squash'
p4048
aF5.957700327673518e-05
aa(lp4049
S'trivial'
p4050
aF0.00011915400655347036
aa(lp4051
S'game'
p4052
aF0.00035746201966041106
aa(lp4053
S'graviti'
p4054
aF5.957700327673518e-05
aa(lp4055
S'sleep'
p4056
aF0.00011915400655347036
aa(lp4057
S'fright'
p4058
aF0.00011915400655347036
aa(lp4059
S'convolut'
p4060
aF0.00011915400655347036
aa(lp4061
S'soulless'
p4062
aF0.00035746201966041106
aa(lp4063
S'rate'
p4064
aF0.00011915400655347036
aa(lp4065
S'trivial'
p4066
aF0.00011915400655347036
aa(lp4067
S'contend'
p4068
aF0.00011915400655347036
aa(lp4069
S'fathom'
p4070
aF0.0
aa(lp4071
S'jump-in-your-seat'
p4072
aF5.957700327673518e-05
aa(lp4073
S'self-deprec'
p4074
aF5.957700327673518e-05
aa(lp4075
S'sentenc'
p4076
aF0.00011915400655347036
aa(lp4077
S'collect'
p4078
aF0.00023830801310694073
aa(lp4079
S'inescap'
p4080
aF0.00011915400655347036
aa(lp4081
S'animatron'
p4082
aF5.957700327673518e-05
aa(lp4083
S'tang'
p4084
aF5.957700327673518e-05
aa(lp4085
S'logic'
p4086
aF0.00023830801310694073
aa(lp4087
S'pop-influenc'
p4088
aF0.0
aa(lp4089
S'dud'
p4090
aF0.00017873100983020553
aa(lp4091
S'stink'
p4092
aF0.00017873100983020553
aa(lp4093
S'hackeri'
p4094
aF5.957700327673518e-05
aa(lp4095
S'pluck'
p4096
aF5.957700327673518e-05
aa(lp4097
S'instantli'
p4098
aF0.00011915400655347036
aa(lp4099
S'paramount'
p4100
aF5.957700327673518e-05
aa(lp4101
S'improvis'
p4102
aF0.00011915400655347036
aa(lp4103
S'frankli'
p4104
aF5.957700327673518e-05
aa(lp4105
S'angel'
p4106
aF0.00011915400655347036
aa(lp4107
S'sub-sophomor'
p4108
aF5.957700327673518e-05
aa(lp4109
S'contest'
p4110
aF0.00011915400655347036
aa(lp4111
S'bike'
p4112
aF5.957700327673518e-05
aa(lp4113
S'paralyz'
p4114
aF0.0
aa(lp4115
S'\\/mcdowel'
p4116
aF0.0
aa(lp4117
S'spectacl'
p4118
aF0.00023830801310694073
aa(lp4119
S'collect'
p4120
aF0.00023830801310694073
aa(lp4121
S'flatul'
p4122
aF5.957700327673518e-05
aa(lp4123
S'dystopian'
p4124
aF5.957700327673518e-05
aa(lp4125
S'die'
p4126
aF0.00023830801310694073
aa(lp4127
S'arwen'
p4128
aF0.0
aa(lp4129
S'joke'
p4130
aF0.0005957700327673518
aa(lp4131
S'heed'
p4132
aF5.957700327673518e-05
aa(lp4133
S'50-million'
p4134
aF0.0
aa(lp4135
S'piss'
p4136
aF5.957700327673518e-05
aa(lp4137
S'inside-show-biz'
p4138
aF0.0
aa(lp4139
S'hit-hungri'
p4140
aF0.0
aa(lp4141
S'debt'
p4142
aF5.957700327673518e-05
aa(lp4143
S'chamber'
p4144
aF5.957700327673518e-05
aa(lp4145
S'heck'
p4146
aF0.0
aa(lp4147
S'moralist'
p4148
aF0.0
aa(lp4149
S'piscopo'
p4150
aF0.0
aa(lp4151
S'salvag'
p4152
aF5.957700327673518e-05
aa(lp4153
S'barb'
p4154
aF5.957700327673518e-05
aa(lp4155
S'countri'
p4156
aF0.0002978850163836759
aa(lp4157
S'sloppili'
p4158
aF0.00011915400655347036
aa(lp4159
S'rat'
p4160
aF5.957700327673518e-05
aa(lp4161
S'dime'
p4162
aF5.957700327673518e-05
aa(lp4163
S'grey'
p4164
aF5.957700327673518e-05
aa(lp4165
S'gunplay'
p4166
aF5.957700327673518e-05
aa(lp4167
S'diver'
p4168
aF0.0
aa(lp4169
S'shapeless'
p4170
aF0.00023830801310694073
aa(lp4171
S'ran'
p4172
aF5.957700327673518e-05
aa(lp4173
S'amateur'
p4174
aF5.957700327673518e-05
aa(lp4175
S'odor'
p4176
aF5.957700327673518e-05
aa(lp4177
S'rom'
p4178
aF0.0
aa(lp4179
S'search'
p4180
aF0.00011915400655347036
aa(lp4181
S'row'
p4182
aF0.0
aa(lp4183
S'college-spawn'
p4184
aF0.0
aa(lp4185
S'clich'
p4186
aF0.0005361930294906167
aa(lp4187
S'needl'
p4188
aF5.957700327673518e-05
aa(lp4189
S'overact'
p4190
aF5.957700327673518e-05
aa(lp4191
S'misfir'
p4192
aF0.00017873100983020553
aa(lp4193
S'diss'
p4194
aF5.957700327673518e-05
aa(lp4195
S'super'
p4196
aF5.957700327673518e-05
aa(lp4197
S'overlap'
p4198
aF0.0
aa(lp4199
S'demeanor'
p4200
aF0.0
aa(lp4201
S'understand'
p4202
aF0.0004170390229371463
aa(lp4203
S'deriv'
p4204
aF0.0002978850163836759
aa(lp4205
S'nail-bit'
p4206
aF0.0
aa(lp4207
S'dancer'
p4208
aF0.0
aa(lp4209
S'paranoia'
p4210
aF5.957700327673518e-05
aa(lp4211
S'damn'
p4212
aF0.0002978850163836759
aa(lp4213
S'pic'
p4214
aF0.00011915400655347036
aa(lp4215
S'rut'
p4216
aF5.957700327673518e-05
aa(lp4217
S'pick'
p4218
aF0.00017873100983020553
aa(lp4219
S'scientist'
p4220
aF5.957700327673518e-05
aa(lp4221
S'insan'
p4222
aF0.00011915400655347036
aa(lp4223
S'uncomfort'
p4224
aF0.00011915400655347036
aa(lp4225
S'remak'
p4226
aF0.0002978850163836759
aa(lp4227
S'quak'
p4228
aF0.0
aa(lp4229
S'kafka-inspir'
p4230
aF0.0
aa(lp4231
S'ripper'
p4232
aF0.0
aa(lp4233
S'democrat'
p4234
aF0.0
aa(lp4235
S'favourit'
p4236
aF5.957700327673518e-05
aa(lp4237
S'happen'
p4238
aF0.00035746201966041106
aa(lp4239
S'uncomfort'
p4240
aF0.00011915400655347036
aa(lp4241
S'well-intent'
p4242
aF5.957700327673518e-05
aa(lp4243
S'nonsens'
p4244
aF0.00017873100983020553
aa(lp4245
S'half-bak'
p4246
aF5.957700327673518e-05
aa(lp4247
S'unravel'
p4248
aF0.0
aa(lp4249
S'buy'
p4250
aF0.00023830801310694073
aa(lp4251
S'bodaci'
p4252
aF5.957700327673518e-05
aa(lp4253
S'pile'
p4254
aF0.00017873100983020553
aa(lp4255
S'oppos'
p4256
aF5.957700327673518e-05
aa(lp4257
S'corner'
p4258
aF0.00011915400655347036
aa(lp4259
S'of-a-sequel'
p4260
aF5.957700327673518e-05
aa(lp4261
S'bottomlessli'
p4262
aF0.0
aa(lp4263
S'head'
p4264
aF0.00047661602621388145
aa(lp4265
S'artless'
p4266
aF0.0
aa(lp4267
S'lacey'
p4268
aF5.957700327673518e-05
aa(lp4269
S'univac-lik'
p4270
aF5.957700327673518e-05
aa(lp4271
S'\\/rock'
p4272
aF0.0
aa(lp4273
S'perch'
p4274
aF5.957700327673518e-05
aa(lp4275
S'booster'
p4276
aF0.0
aa(lp4277
S'sin'
p4278
aF0.00011915400655347036
aa(lp4279
S'reach'
p4280
aF0.00017873100983020553
aa(lp4281
S'bedsid'
p4282
aF0.0
aa(lp4283
S'loveabl'
p4284
aF5.957700327673518e-05
aa(lp4285
S'kung'
p4286
aF0.00017873100983020553
aa(lp4287
S'unreal'
p4288
aF5.957700327673518e-05
aa(lp4289
S'sex'
p4290
aF0.0002978850163836759
aa(lp4291
S'set'
p4292
aF0.0008936550491510277
aa(lp4293
S'dismemb'
p4294
aF0.0
aa(lp4295
S'reject'
p4296
aF0.00017873100983020553
aa(lp4297
S'summon'
p4298
aF0.0
aa(lp4299
S'rais'
p4300
aF0.00017873100983020553
aa(lp4301
S'santa'
p4302
aF0.00011915400655347036
aa(lp4303
S'spade'
p4304
aF0.0
aa(lp4305
S'kaig'
p4306
aF5.957700327673518e-05
aa(lp4307
S'oscar-sweep'
p4308
aF0.0
aa(lp4309
S'level'
p4310
aF0.00035746201966041106
aa(lp4311
S'hard-sel'
p4312
aF5.957700327673518e-05
aa(lp4313
S'floppi'
p4314
aF0.0
aa(lp4315
S'theatric'
p4316
aF0.00011915400655347036
aa(lp4317
S'cheeri'
p4318
aF0.0
aa(lp4319
S'jag'
p4320
aF5.957700327673518e-05
aa(lp4321
S'wink'
p4322
aF5.957700327673518e-05
aa(lp4323
S'septemb'
p4324
aF5.957700327673518e-05
aa(lp4325
S'ripoff'
p4326
aF0.0
aa(lp4327
S'unpleas'
p4328
aF0.00035746201966041106
aa(lp4329
S'spall'
p4330
aF0.0
aa(lp4331
S'overrip'
p4332
aF5.957700327673518e-05
aa(lp4333
S'lovebird'
p4334
aF5.957700327673518e-05
aa(lp4335
S'pooper-scoop'
p4336
aF5.957700327673518e-05
aa(lp4337
S'rais'
p4338
aF0.00017873100983020553
aa(lp4339
S'album'
p4340
aF5.957700327673518e-05
aa(lp4341
S'mcdonald'
p4342
aF0.0
aa(lp4343
S'sub'
p4344
aF0.0
aa(lp4345
S'sum'
p4346
aF0.00023830801310694073
aa(lp4347
S'pain'
p4348
aF0.0005957700327673518
aa(lp4349
S'rush'
p4350
aF0.00017873100983020553
aa(lp4351
S'unbridl'
p4352
aF5.957700327673518e-05
aa(lp4353
S'ruse'
p4354
aF5.957700327673518e-05
aa(lp4355
S'old-tim'
p4356
aF0.0
aa(lp4357
S'tad'
p4358
aF0.0
aa(lp4359
S'wisegirl'
p4360
aF0.0
aa(lp4361
S'zeitgeist'
p4362
aF5.957700327673518e-05
aa(lp4363
S'die'
p4364
aF0.00023830801310694073
aa(lp4365
S'die'
p4366
aF0.00023830801310694073
aa(lp4367
S'window'
p4368
aF0.00017873100983020553
aa(lp4369
S'anti-war'
p4370
aF0.0
aa(lp4371
S'uppiti'
p4372
aF0.0
aa(lp4373
S'circumst'
p4374
aF5.957700327673518e-05
aa(lp4375
S'sweat'
p4376
aF5.957700327673518e-05
aa(lp4377
S'level'
p4378
aF0.00035746201966041106
aa(lp4379
S'ritual'
p4380
aF0.0
aa(lp4381
S'stupid'
p4382
aF0.0007745010425975573
aa(lp4383
S'snuck'
p4384
aF0.0
aa(lp4385
S'dolbi'
p4386
aF5.957700327673518e-05
aa(lp4387
S'hibern'
p4388
aF0.0
aa(lp4389
S'unlik'
p4390
aF0.0002978850163836759
aa(lp4391
S'puls'
p4392
aF5.957700327673518e-05
aa(lp4393
S'pay'
p4394
aF0.0004170390229371463
aa(lp4395
S'delv'
p4396
aF5.957700327673518e-05
aa(lp4397
S'pap'
p4398
aF5.957700327673518e-05
aa(lp4399
S'burrito'
p4400
aF5.957700327673518e-05
aa(lp4401
S'lobbi'
p4402
aF5.957700327673518e-05
aa(lp4403
S'suffer'
p4404
aF0.0005957700327673518
aa(lp4405
S'highlight'
p4406
aF0.00011915400655347036
aa(lp4407
S'celluloid'
p4408
aF5.957700327673518e-05
aa(lp4409
S'gain'
p4410
aF0.00011915400655347036
aa(lp4411
S'crawli'
p4412
aF0.0
aa(lp4413
S'joyless'
p4414
aF0.00011915400655347036
aa(lp4415
S'pet'
p4416
aF5.957700327673518e-05
aa(lp4417
S'plex'
p4418
aF0.0
aa(lp4419
S'infiltr'
p4420
aF0.0
aa(lp4421
S'hooligan'
p4422
aF0.0
aa(lp4423
S'hurley'
p4424
aF0.0
aa(lp4425
S'fatter'
p4426
aF0.0
aa(lp4427
S'pic'
p4428
aF0.00011915400655347036
aa(lp4429
S'pig'
p4430
aF5.957700327673518e-05
aa(lp4431
S'pit'
p4432
aF0.00011915400655347036
aa(lp4433
S'grandfath'
p4434
aF0.0
aa(lp4435
S'hammi'
p4436
aF5.957700327673518e-05
aa(lp4437
S'hunger'
p4438
aF0.0
aa(lp4439
S'incarn'
p4440
aF5.957700327673518e-05
aa(lp4441
S'titl'
p4442
aF0.0005957700327673518
aa(lp4443
S'titl'
p4444
aF0.0005957700327673518
aa(lp4445
S"'ve"
p4446
aF0.0007149240393208221
aa(lp4447
S'crawl'
p4448
aF5.957700327673518e-05
aa(lp4449
S'chyna'
p4450
aF5.957700327673518e-05
aa(lp4451
S'villai'
p4452
aF5.957700327673518e-05
aa(lp4453
S'pie-lik'
p4454
aF0.0
aa(lp4455
S'napoli'
p4456
aF0.0
aa(lp4457
S'inexplic'
p4458
aF0.00011915400655347036
aa(lp4459
S'throat-sing'
p4460
aF0.0
aa(lp4461
S'inexplic'
p4462
aF0.00011915400655347036
aa(lp4463
S'pithi'
p4464
aF0.0
aa(lp4465
S'jealou'
p4466
aF0.0
aa(lp4467
S'aisl'
p4468
aF5.957700327673518e-05
aa(lp4469
S'harangu'
p4470
aF5.957700327673518e-05
aa(lp4471
S'fluiditi'
p4472
aF0.0
aa(lp4473
S'twice'
p4474
aF0.00017873100983020553
aa(lp4475
S'disguis'
p4476
aF0.00035746201966041106
aa(lp4477
S'tediou'
p4478
aF0.0004170390229371463
aa(lp4479
S'curs'
p4480
aF5.957700327673518e-05
aa(lp4481
S'creature-featur'
p4482
aF0.0
aa(lp4483
S'stagger'
p4484
aF5.957700327673518e-05
aa(lp4485
S'beg'
p4486
aF0.00011915400655347036
aa(lp4487
S'audac'
p4488
aF5.957700327673518e-05
aa(lp4489
S'capra'
p4490
aF5.957700327673518e-05
aa(lp4491
S"'re"
p4492
aF0.001012809055704498
aa(lp4493
S'extrem'
p4494
aF0.0004170390229371463
aa(lp4495
S'the-cash'
p4496
aF0.0
aa(lp4497
S'bare'
p4498
aF0.0005957700327673518
aa(lp4499
S'consid'
p4500
aF0.00017873100983020553
aa(lp4501
S'bear'
p4502
aF0.00035746201966041106
aa(lp4503
S'juliet'
p4504
aF0.0
aa(lp4505
S'mapquest'
p4506
aF5.957700327673518e-05
aa(lp4507
S'drive'
p4508
aF0.00011915400655347036
aa(lp4509
S'unfocus'
p4510
aF0.00023830801310694073
aa(lp4511
S'head-trip'
p4512
aF0.0
aa(lp4513
S'non-fan'
p4514
aF0.0
aa(lp4515
S'huckster'
p4516
aF0.0
aa(lp4517
S'attract'
p4518
aF0.0002978850163836759
aa(lp4519
S'dungpil'
p4520
aF5.957700327673518e-05
aa(lp4521
S'activ'
p4522
aF5.957700327673518e-05
aa(lp4523
S'hostag'
p4524
aF0.0
aa(lp4525
S'felinni'
p4526
aF0.0
aa(lp4527
S'goe'
p4528
aF0.0004170390229371463
aa(lp4529
S'punchlin'
p4530
aF5.957700327673518e-05
aa(lp4531
S'self-control'
p4532
aF5.957700327673518e-05
aa(lp4533
S'attend'
p4534
aF0.0
aa(lp4535
S'insipid'
p4536
aF0.00017873100983020553
aa(lp4537
S'awaken'
p4538
aF5.957700327673518e-05
aa(lp4539
S'carey'
p4540
aF0.0
aa(lp4541
S'suck'
p4542
aF0.00011915400655347036
aa(lp4543
S'rejigg'
p4544
aF5.957700327673518e-05
aa(lp4545
S'wankeri'
p4546
aF0.0
aa(lp4547
S'eagl'
p4548
aF0.0
aa(lp4549
S'bump-in'
p4550
aF0.0
aa(lp4551
S'splash'
p4552
aF0.00011915400655347036
aa(lp4553
S'project'
p4554
aF0.00035746201966041106
aa(lp4555
S'bone-chil'
p4556
aF0.0
aa(lp4557
S'harm'
p4558
aF5.957700327673518e-05
aa(lp4559
S'same'
p4560
aF0.000655347036044087
aa(lp4561
S'doing-it-for'
p4562
aF0.0
aa(lp4563
S'plot'
p4564
aF0.0016681560917485851
aa(lp4565
S'half'
p4566
aF0.0004170390229371463
aa(lp4567
S'vers'
p4568
aF0.0
aa(lp4569
S'putrid'
p4570
aF5.957700327673518e-05
aa(lp4571
S'real-tim'
p4572
aF0.0
aa(lp4573
S'inauthent'
p4574
aF5.957700327673518e-05
aa(lp4575
S'expect'
p4576
aF0.0005957700327673518
aa(lp4577
S'liana'
p4578
aF0.0
aa(lp4579
S'plu'
p4580
aF5.957700327673518e-05
aa(lp4581
S'viewer'
p4582
aF0.000655347036044087
aa(lp4583
S'sloppi'
p4584
aF0.0002978850163836759
aa(lp4585
S'argentin'
p4586
aF5.957700327673518e-05
aa(lp4587
S'harden'
p4588
aF5.957700327673518e-05
aa(lp4589
S'skippabl'
p4590
aF0.0
aa(lp4591
S'unrecover'
p4592
aF0.0
aa(lp4593
S'kitsch'
p4594
aF0.0
aa(lp4595
S'scarc'
p4596
aF5.957700327673518e-05
aa(lp4597
S'maiden'
p4598
aF0.0
aa(lp4599
S'pretenti'
p4600
aF0.00035746201966041106
aa(lp4601
S'haul'
p4602
aF5.957700327673518e-05
aa(lp4603
S'eighth'
p4604
aF5.957700327673518e-05
aa(lp4605
S'behav'
p4606
aF0.0
aa(lp4607
S'plaintiv'
p4608
aF0.0
aa(lp4609
S'lowbrow'
p4610
aF5.957700327673518e-05
aa(lp4611
S'sleazi'
p4612
aF5.957700327673518e-05
aa(lp4613
S'doppelgang'
p4614
aF0.0
aa(lp4615
S'open-mind'
p4616
aF0.0
aa(lp4617
S'erect'
p4618
aF0.0
aa(lp4619
S'predict'
p4620
aF0.0005957700327673518
aa(lp4621
S'mull'
p4622
aF0.0
aa(lp4623
S'sickli'
p4624
aF5.957700327673518e-05
aa(lp4625
S'hands-on'
p4626
aF0.0
aa(lp4627
S'broadsid'
p4628
aF0.0
aa(lp4629
S'coordin'
p4630
aF0.0
aa(lp4631
S'sprung'
p4632
aF5.957700327673518e-05
aa(lp4633
S'below'
p4634
aF0.00017873100983020553
aa(lp4635
S'prank'
p4636
aF0.0
aa(lp4637
S'mainland'
p4638
aF0.0
aa(lp4639
S'standoffish'
p4640
aF0.0
aa(lp4641
S'inc.'
p4642
aF5.957700327673518e-05
aa(lp4643
S'actorli'
p4644
aF5.957700327673518e-05
aa(lp4645
S'kafka'
p4646
aF0.0
aa(lp4647
S'entir'
p4648
aF0.0005361930294906167
aa(lp4649
S'point-to-point'
p4650
aF5.957700327673518e-05
aa(lp4651
S'gremlin'
p4652
aF0.0
aa(lp4653
S'fourth-rat'
p4654
aF5.957700327673518e-05
aa(lp4655
S'threefold'
p4656
aF0.0
aa(lp4657
S'elimin'
p4658
aF0.0
aa(lp4659
S'transpar'
p4660
aF0.00011915400655347036
aa(lp4661
S'bank'
p4662
aF5.957700327673518e-05
aa(lp4663
S'pretend'
p4664
aF0.00017873100983020553
aa(lp4665
S'random'
p4666
aF0.00011915400655347036
aa(lp4667
S'steril'
p4668
aF5.957700327673518e-05
aa(lp4669
S'nor'
p4670
aF0.00035746201966041106
aa(lp4671
S'qualiti'
p4672
aF0.00023830801310694073
aa(lp4673
S'tranquil'
p4674
aF0.0
aa(lp4675
S'sooth'
p4676
aF5.957700327673518e-05
aa(lp4677
S'tendenc'
p4678
aF5.957700327673518e-05
aa(lp4679
S'shred'
p4680
aF5.957700327673518e-05
aa(lp4681
S'painkil'
p4682
aF5.957700327673518e-05
aa(lp4683
S'lazi'
p4684
aF0.00023830801310694073
aa(lp4685
S'minut'
p4686
aF0.0014894250819183796
aa(lp4687
S'person'
p4688
aF0.0004170390229371463
aa(lp4689
S'8-10'
p4690
aF0.0
aa(lp4691
S'unearth'
p4692
aF0.0
aa(lp4693
S'pain'
p4694
aF0.0005957700327673518
aa(lp4695
S'punchier'
p4696
aF0.0
aa(lp4697
S'poki'
p4698
aF5.957700327673518e-05
aa(lp4699
S'ashley'
p4700
aF5.957700327673518e-05
aa(lp4701
S'hard-parti'
p4702
aF0.0
aa(lp4703
S'127'
p4704
aF0.0
aa(lp4705
S'pond'
p4706
aF0.0
aa(lp4707
S'morgan'
p4708
aF5.957700327673518e-05
aa(lp4709
S'146'
p4710
aF5.957700327673518e-05
aa(lp4711
S'enter'
p4712
aF0.00017873100983020553
aa(lp4713
S'provok'
p4714
aF0.00011915400655347036
aa(lp4715
S'thoroughli'
p4716
aF0.0002978850163836759
aa(lp4717
S'martial'
p4718
aF5.957700327673518e-05
aa(lp4719
S'kubrick-meets-spielberg'
p4720
aF0.0
aa(lp4721
S'dumbed-down'
p4722
aF5.957700327673518e-05
aa(lp4723
S'showcas'
p4724
aF0.00011915400655347036
aa(lp4725
S'character-driven'
p4726
aF0.0
aa(lp4727
S'toler'
p4728
aF0.00017873100983020553
aa(lp4729
S'own'
p4730
aF0.0010723860589812334
aa(lp4731
S'\\/legal'
p4732
aF0.0
aa(lp4733
S'videodrom'
p4734
aF0.0
aa(lp4735
S'plausibl'
p4736
aF5.957700327673518e-05
aa(lp4737
S'theatric'
p4738
aF0.00011915400655347036
aa(lp4739
S'gender-provok'
p4740
aF0.0
aa(lp4741
S'surrend'
p4742
aF5.957700327673518e-05
aa(lp4743
S'opposit'
p4744
aF0.00011915400655347036
aa(lp4745
S'criterion'
p4746
aF0.0
aa(lp4747
S'out-siz'
p4748
aF5.957700327673518e-05
aa(lp4749
S'jerk'
p4750
aF5.957700327673518e-05
aa(lp4751
S'welt'
p4752
aF5.957700327673518e-05
aa(lp4753
S'revuls'
p4754
aF5.957700327673518e-05
aa(lp4755
S'boil'
p4756
aF5.957700327673518e-05
aa(lp4757
S'comeupp'
p4758
aF0.0
aa(lp4759
S'ground'
p4760
aF0.00011915400655347036
aa(lp4761
S'105'
p4762
aF5.957700327673518e-05
aa(lp4763
S'rancid'
p4764
aF0.0
aa(lp4765
S'adorn'
p4766
aF0.0
aa(lp4767
S'screenwrit'
p4768
aF0.0005361930294906167
aa(lp4769
S'photo'
p4770
aF5.957700327673518e-05
aa(lp4771
S'minut'
p4772
aF0.0014894250819183796
aa(lp4773
S'psych'
p4774
aF5.957700327673518e-05
aa(lp4775
S'media-construct'
p4776
aF0.0
aa(lp4777
S'bare'
p4778
aF0.0005957700327673518
aa(lp4779
S'...'
p4780
aF0.005004468275245755
aa(lp4781
S'bygon'
p4782
aF5.957700327673518e-05
aa(lp4783
S'bath'
p4784
aF5.957700327673518e-05
aa(lp4785
S'stack'
p4786
aF0.00011915400655347036
aa(lp4787
S'steal'
p4788
aF0.00023830801310694073
aa(lp4789
S'bar'
p4790
aF0.00011915400655347036
aa(lp4791
S'staggeringli'
p4792
aF5.957700327673518e-05
aa(lp4793
S'self-styl'
p4794
aF0.0
aa(lp4795
S'bank'
p4796
aF5.957700327673518e-05
aa(lp4797
S'lad'
p4798
aF0.0
aa(lp4799
S'oh-so-import'
p4800
aF0.0
aa(lp4801
S'improv'
p4802
aF0.00017873100983020553
aa(lp4803
S'deliber'
p4804
aF0.00011915400655347036
aa(lp4805
S'improv'
p4806
aF0.00017873100983020553
aa(lp4807
S'lovable-los'
p4808
aF0.0
aa(lp4809
S'shoot'
p4810
aF0.00023830801310694073
aa(lp4811
S'virtual'
p4812
aF0.0002978850163836759
aa(lp4813
S'restat'
p4814
aF5.957700327673518e-05
aa(lp4815
S'overwork'
p4816
aF0.0
aa(lp4817
S'rang'
p4818
aF5.957700327673518e-05
aa(lp4819
S'period-piec'
p4820
aF5.957700327673518e-05
aa(lp4821
S'bratt'
p4822
aF5.957700327673518e-05
aa(lp4823
S'trailer'
p4824
aF0.00011915400655347036
aa(lp4825
S'evid'
p4826
aF0.00011915400655347036
aa(lp4827
S'low'
p4828
aF0.0004170390229371463
aa(lp4829
S'ugli'
p4830
aF0.0007149240393208221
aa(lp4831
S'three-to-on'
p4832
aF0.0
aa(lp4833
S'undertaken'
p4834
aF0.0
aa(lp4835
S'formal'
p4836
aF5.957700327673518e-05
aa(lp4837
S'whom'
p4838
aF0.00011915400655347036
aa(lp4839
S'goth-vampir'
p4840
aF5.957700327673518e-05
aa(lp4841
S'gentlemen'
p4842
aF5.957700327673518e-05
aa(lp4843
S'clich'
p4844
aF0.0005361930294906167
aa(lp4845
S'distinguish'
p4846
aF0.00023830801310694073
aa(lp4847
S'clich'
p4848
aF0.0005361930294906167
aa(lp4849
S'store'
p4850
aF0.00011915400655347036
aa(lp4851
S'ile'
p4852
aF0.0
aa(lp4853
S'\\/all-star'
p4854
aF0.0
aa(lp4855
S'pork'
p4856
aF5.957700327673518e-05
aa(lp4857
S'hanki'
p4858
aF0.0
aa(lp4859
S'andi'
p4860
aF5.957700327673518e-05
aa(lp4861
S'degrad'
p4862
aF5.957700327673518e-05
aa(lp4863
S'poor'
p4864
aF0.00047661602621388145
aa(lp4865
S'degrad'
p4866
aF5.957700327673518e-05
aa(lp4867
S'instead'
p4868
aF0.0005361930294906167
aa(lp4869
S'sadist'
p4870
aF5.957700327673518e-05
aa(lp4871
S'effect'
p4872
aF0.000655347036044087
aa(lp4873
S'prefeminist'
p4874
aF0.0
aa(lp4875
S'imagin'
p4876
aF0.0007149240393208221
aa(lp4877
S'intermezzo'
p4878
aF0.0
aa(lp4879
S'petti'
p4880
aF5.957700327673518e-05
aa(lp4881
S'inadequ'
p4882
aF5.957700327673518e-05
aa(lp4883
S'muddl'
p4884
aF0.00035746201966041106
aa(lp4885
S'boorish'
p4886
aF0.00011915400655347036
aa(lp4887
S'begin'
p4888
aF0.00047661602621388145
aa(lp4889
S'unchart'
p4890
aF5.957700327673518e-05
aa(lp4891
S'chosen'
p4892
aF0.00011915400655347036
aa(lp4893
S'leplouff'
p4894
aF5.957700327673518e-05
aa(lp4895
S'canadian'
p4896
aF5.957700327673518e-05
aa(lp4897
S'partisan'
p4898
aF0.0
aa(lp4899
S'unsuccess'
p4900
aF5.957700327673518e-05
aa(lp4901
S'virul'
p4902
aF0.00011915400655347036
aa(lp4903
S'hogwash'
p4904
aF0.0
aa(lp4905
S'folksi'
p4906
aF5.957700327673518e-05
aa(lp4907
S'miramax'
p4908
aF5.957700327673518e-05
aa(lp4909
S'unsolv'
p4910
aF0.0
aa(lp4911
S'talent'
p4912
aF0.000655347036044087
aa(lp4913
S'eleph'
p4914
aF5.957700327673518e-05
aa(lp4915
S'banger'
p4916
aF0.0
aa(lp4917
S'poetic'
p4918
aF0.00011915400655347036
aa(lp4919
S'stack'
p4920
aF0.00011915400655347036
aa(lp4921
S'disast'
p4922
aF0.00023830801310694073
aa(lp4923
S'alleg'
p4924
aF5.957700327673518e-05
aa(lp4925
S'reprehens'
p4926
aF5.957700327673518e-05
aa(lp4927
S'hippie-turned-yuppi'
p4928
aF0.0
aa(lp4929
S'harp'
p4930
aF0.0
aa(lp4931
S'civil'
p4932
aF5.957700327673518e-05
aa(lp4933
S'harsh'
p4934
aF5.957700327673518e-05
aa(lp4935
S'standard-issu'
p4936
aF0.0
aa(lp4937
S'mud'
p4938
aF5.957700327673518e-05
aa(lp4939
S'inhal'
p4940
aF5.957700327673518e-05
aa(lp4941
S'fanci'
p4942
aF0.00011915400655347036
aa(lp4943
S'poetic'
p4944
aF0.00011915400655347036
aa(lp4945
S'dewy-ey'
p4946
aF0.0
aa(lp4947
S'denouement'
p4948
aF5.957700327673518e-05
aa(lp4949
S'flower'
p4950
aF5.957700327673518e-05
aa(lp4951
S'dull'
p4952
aF0.0013702710753649091
aa(lp4953
S'imagin'
p4954
aF0.0007149240393208221
aa(lp4955
S'smell'
p4956
aF5.957700327673518e-05
aa(lp4957
S'tendenc'
p4958
aF5.957700327673518e-05
aa(lp4959
S'by-the-numb'
p4960
aF5.957700327673518e-05
aa(lp4961
S'theater'
p4962
aF0.0005361930294906167
aa(lp4963
S'compon'
p4964
aF0.0
aa(lp4965
S'world-renown'
p4966
aF0.0
aa(lp4967
S'relentlessli'
p4968
aF0.00011915400655347036
aa(lp4969
S'tuck'
p4970
aF5.957700327673518e-05
aa(lp4971
S'degener'
p4972
aF0.0
aa(lp4973
S'sommer'
p4974
aF0.0
aa(lp4975
S'50'
p4976
aF5.957700327673518e-05
aa(lp4977
S'fetch'
p4978
aF0.0
aa(lp4979
S'entendr'
p4980
aF0.0
aa(lp4981
S'spat'
p4982
aF0.0
aa(lp4983
S'harvard'
p4984
aF0.00023830801310694073
aa(lp4985
S'unrelentingli'
p4986
aF5.957700327673518e-05
aa(lp4987
S'ludicr'
p4988
aF0.0002978850163836759
aa(lp4989
S'flush'
p4990
aF5.957700327673518e-05
aa(lp4991
S'lower'
p4992
aF5.957700327673518e-05
aa(lp4993
S'border'
p4994
aF0.00011915400655347036
aa(lp4995
S'miscast'
p4996
aF0.0
aa(lp4997
S'loos'
p4998
aF0.00023830801310694073
aa(lp4999
S'publicist'
p5000
aF0.00011915400655347036
aa(lp5001
S'unimagin'
p5002
aF0.00017873100983020553
aa(lp5003
S'telephon'
p5004
aF0.0
aa(lp5005
S'knoxvil'
p5006
aF5.957700327673518e-05
aa(lp5007
S'post-camp'
p5008
aF0.0
aa(lp5009
S'marqui'
p5010
aF0.00011915400655347036
aa(lp5011
S'tutori'
p5012
aF0.0
aa(lp5013
S'theatr'
p5014
aF0.00023830801310694073
aa(lp5015
S'violent'
p5016
aF0.00017873100983020553
aa(lp5017
S'not-so-divin'
p5018
aF0.0
aa(lp5019
S'fluke'
p5020
aF0.0
aa(lp5021
S'anti-erot'
p5022
aF5.957700327673518e-05
aa(lp5023
S'theatric'
p5024
aF0.00011915400655347036
aa(lp5025
S'drink'
p5026
aF0.00011915400655347036
aa(lp5027
S'condescens'
p5028
aF5.957700327673518e-05
aa(lp5029
S'sour'
p5030
aF0.00017873100983020553
aa(lp5031
S'sidekick'
p5032
aF0.0
aa(lp5033
S'superl'
p5034
aF0.0
aa(lp5035
S'overus'
p5036
aF5.957700327673518e-05
aa(lp5037
S'expens'
p5038
aF0.00011915400655347036
aa(lp5039
S'drip'
p5040
aF5.957700327673518e-05
aa(lp5041
S'ugli'
p5042
aF0.0007149240393208221
aa(lp5043
S'thump'
p5044
aF0.0
aa(lp5045
S'car'
p5046
aF0.00035746201966041106
aa(lp5047
S'care'
p5048
aF0.0007745010425975573
aa(lp5049
S'stiletto-stomp'
p5050
aF5.957700327673518e-05
aa(lp5051
S'ordeal'
p5052
aF5.957700327673518e-05
aa(lp5053
S'cash'
p5054
aF5.957700327673518e-05
aa(lp5055
S'breach'
p5056
aF0.0
aa(lp5057
S'drill'
p5058
aF0.0
aa(lp5059
S'feel'
p5060
aF0.002085195114685731
aa(lp5061
S'solo'
p5062
aF0.0
aa(lp5063
S'drive'
p5064
aF0.00011915400655347036
aa(lp5065
S'sole'
p5066
aF5.957700327673518e-05
aa(lp5067
S'loser'
p5068
aF5.957700327673518e-05
aa(lp5069
S'p.o.w.'
p5070
aF0.0
aa(lp5071
S'hard-press'
p5072
aF0.0
aa(lp5073
S'releg'
p5074
aF5.957700327673518e-05
aa(lp5075
S'filler'
p5076
aF0.00011915400655347036
aa(lp5077
S'rumor'
p5078
aF0.00011915400655347036
aa(lp5079
S'letharg'
p5080
aF5.957700327673518e-05
aa(lp5081
S'cake'
p5082
aF0.0
aa(lp5083
S'thud'
p5084
aF5.957700327673518e-05
aa(lp5085
S'babe'
p5086
aF0.0
aa(lp5087
S'soil'
p5088
aF0.0
aa(lp5089
S'scummi'
p5090
aF0.0
aa(lp5091
S'soft'
p5092
aF5.957700327673518e-05
aa(lp5093
S'pimp'
p5094
aF5.957700327673518e-05
aa(lp5095
S'aimless'
p5096
aF5.957700327673518e-05
aa(lp5097
S'superfici'
p5098
aF0.0002978850163836759
aa(lp5099
S'monkey'
p5100
aF5.957700327673518e-05
aa(lp5101
S'bound'
p5102
aF5.957700327673518e-05
aa(lp5103
S'folktal'
p5104
aF0.0
aa(lp5105
S'break-up'
p5106
aF0.0
aa(lp5107
S'splatterfest'
p5108
aF0.0
aa(lp5109
S'451'
p5110
aF5.957700327673518e-05
aa(lp5111
S'edit'
p5112
aF0.0004170390229371463
aa(lp5113
S'taxicab'
p5114
aF5.957700327673518e-05
aa(lp5115
S'wrestler'
p5116
aF5.957700327673518e-05
aa(lp5117
S'skim'
p5118
aF0.0
aa(lp5119
S'conveni'
p5120
aF0.00011915400655347036
aa(lp5121
S'lesson'
p5122
aF0.00017873100983020553
aa(lp5123
S'jettison'
p5124
aF0.0
aa(lp5125
S'pollut'
p5126
aF5.957700327673518e-05
aa(lp5127
S'capit'
p5128
aF0.00011915400655347036
aa(lp5129
S'inconsist'
p5130
aF0.00011915400655347036
aa(lp5131
S'rorschach'
p5132
aF5.957700327673518e-05
aa(lp5133
S'includ'
p5134
aF0.00017873100983020553
aa(lp5135
S'includ'
p5136
aF0.00017873100983020553
aa(lp5137
S'witherspoon'
p5138
aF5.957700327673518e-05
aa(lp5139
S'purposeless'
p5140
aF5.957700327673518e-05
aa(lp5141
S'stuck'
p5142
aF0.00023830801310694073
aa(lp5143
S'50-someth'
p5144
aF5.957700327673518e-05
aa(lp5145
S'baaaaaaaaad'
p5146
aF0.0
aa(lp5147
S'cavort'
p5148
aF0.0
aa(lp5149
S'antitrust'
p5150
aF5.957700327673518e-05
aa(lp5151
S'adequ'
p5152
aF0.00011915400655347036
aa(lp5153
S'pass'
p5154
aF0.0002978850163836759
aa(lp5155
S'wist'
p5156
aF5.957700327673518e-05
aa(lp5157
S'pass'
p5158
aF0.0002978850163836759
aa(lp5159
S'concoct'
p5160
aF0.00011915400655347036
aa(lp5161
S'civil'
p5162
aF5.957700327673518e-05
aa(lp5163
S'zaidan'
p5164
aF0.0
aa(lp5165
S'counter-cultur'
p5166
aF5.957700327673518e-05
aa(lp5167
S'infantil'
p5168
aF0.00011915400655347036
aa(lp5169
S'modem'
p5170
aF0.0
aa(lp5171
S'slide'
p5172
aF5.957700327673518e-05
aa(lp5173
S'vaniti'
p5174
aF0.00011915400655347036
aa(lp5175
S'suffer'
p5176
aF0.0005957700327673518
aa(lp5177
S'edgi'
p5178
aF5.957700327673518e-05
aa(lp5179
S'minut'
p5180
aF0.0014894250819183796
aa(lp5181
S'toxic'
p5182
aF0.0
aa(lp5183
S'cameo'
p5184
aF5.957700327673518e-05
aa(lp5185
S'contend'
p5186
aF0.00011915400655347036
aa(lp5187
S'ballroom'
p5188
aF0.0
aa(lp5189
S'much-need'
p5190
aF0.0
aa(lp5191
S'narr'
p5192
aF0.00047661602621388145
aa(lp5193
S'all-night'
p5194
aF5.957700327673518e-05
aa(lp5195
S'heather'
p5196
aF0.0
aa(lp5197
S'accus'
p5198
aF5.957700327673518e-05
aa(lp5199
S'display'
p5200
aF0.00011915400655347036
aa(lp5201
S'longley'
p5202
aF0.0
aa(lp5203
S'unfulfil'
p5204
aF0.00011915400655347036
aa(lp5205
S'warden'
p5206
aF0.0
aa(lp5207
S'grievou'
p5208
aF0.0
aa(lp5209
S'bath'
p5210
aF5.957700327673518e-05
aa(lp5211
S'anti-kieslowski'
p5212
aF0.0
aa(lp5213
S'schemat'
p5214
aF0.0
aa(lp5215
S'silli'
p5216
aF0.00047661602621388145
aa(lp5217
S'everett'
p5218
aF0.0
aa(lp5219
S'chip'
p5220
aF0.0
aa(lp5221
S'screenwrit'
p5222
aF0.0005361930294906167
aa(lp5223
S'blown'
p5224
aF5.957700327673518e-05
aa(lp5225
S'decis'
p5226
aF5.957700327673518e-05
aa(lp5227
S'journalist'
p5228
aF0.00011915400655347036
aa(lp5229
S'spous'
p5230
aF5.957700327673518e-05
aa(lp5231
S'cooler'
p5232
aF5.957700327673518e-05
aa(lp5233
S'spoof'
p5234
aF0.00017873100983020553
aa(lp5235
S'fastbal'
p5236
aF0.0
aa(lp5237
S'delv'
p5238
aF5.957700327673518e-05
aa(lp5239
S'indoor'
p5240
aF5.957700327673518e-05
aa(lp5241
S'highlight'
p5242
aF0.00011915400655347036
aa(lp5243
S'toler'
p5244
aF0.00017873100983020553
aa(lp5245
S'ear'
p5246
aF0.00011915400655347036
aa(lp5247
S'nobil'
p5248
aF0.0
aa(lp5249
S'jeopardi'
p5250
aF0.0
aa(lp5251
S'attent'
p5252
aF0.00023830801310694073
aa(lp5253
S'cliche-ridden'
p5254
aF5.957700327673518e-05
aa(lp5255
S'refer'
p5256
aF0.00017873100983020553
aa(lp5257
S'splash'
p5258
aF0.00011915400655347036
aa(lp5259
S'egregi'
p5260
aF0.0
aa(lp5261
S'attent'
p5262
aF0.00023830801310694073
aa(lp5263
S'fatal'
p5264
aF0.0002978850163836759
aa(lp5265
S'dizzili'
p5266
aF0.0
aa(lp5267
S'candi'
p5268
aF0.00011915400655347036
aa(lp5269
S'fece'
p5270
aF0.00011915400655347036
aa(lp5271
S'zombi'
p5272
aF5.957700327673518e-05
aa(lp5273
S'tomato'
p5274
aF0.0
aa(lp5275
S'hurri'
p5276
aF5.957700327673518e-05
aa(lp5277
S'cesspool'
p5278
aF0.0
aa(lp5279
S'mess'
p5280
aF0.0008936550491510277
aa(lp5281
S'lens'
p5282
aF0.0
aa(lp5283
S'countri'
p5284
aF0.0002978850163836759
aa(lp5285
S'mystic'
p5286
aF5.957700327673518e-05
aa(lp5287
S'ye'
p5288
aF0.0002978850163836759
aa(lp5289
S'sicken'
p5290
aF5.957700327673518e-05
aa(lp5291
S'berkley'
p5292
aF0.0
aa(lp5293
S'trash'
p5294
aF0.00011915400655347036
aa(lp5295
S'bugsi'
p5296
aF5.957700327673518e-05
aa(lp5297
S'sampl'
p5298
aF5.957700327673518e-05
aa(lp5299
S'hot-button'
p5300
aF5.957700327673518e-05
aa(lp5301
S'caper'
p5302
aF0.00011915400655347036
aa(lp5303
S'badli'
p5304
aF0.00017873100983020553
aa(lp5305
S'scoobi'
p5306
aF5.957700327673518e-05
aa(lp5307
S'bother'
p5308
aF0.00017873100983020553
aa(lp5309
S'garbl'
p5310
aF0.0
aa(lp5311
S'attend'
p5312
aF0.0
aa(lp5313
S'fear'
p5314
aF0.0004170390229371463
aa(lp5315
S'unbeliev'
p5316
aF5.957700327673518e-05
aa(lp5317
S'unbeliev'
p5318
aF5.957700327673518e-05
aa(lp5319
S'murdock'
p5320
aF0.0
aa(lp5321
S'showtim'
p5322
aF0.00011915400655347036
aa(lp5323
S'facad'
p5324
aF5.957700327673518e-05
aa(lp5325
S'futurist'
p5326
aF5.957700327673518e-05
aa(lp5327
S'war-movi'
p5328
aF5.957700327673518e-05
aa(lp5329
S'smashup'
p5330
aF5.957700327673518e-05
aa(lp5331
S'at-a-frat-parti'
p5332
aF5.957700327673518e-05
aa(lp5333
S'theater'
p5334
aF0.0005361930294906167
aa(lp5335
S'execut'
p5336
aF0.0004170390229371463
aa(lp5337
S'exotic'
p5338
aF5.957700327673518e-05
aa(lp5339
S'die-hard'
p5340
aF0.0
aa(lp5341
S'outward'
p5342
aF0.0
aa(lp5343
S'spri'
p5344
aF5.957700327673518e-05
aa(lp5345
S'murder-on-campu'
p5346
aF5.957700327673518e-05
aa(lp5347
S'unmention'
p5348
aF5.957700327673518e-05
aa(lp5349
S'inadvert'
p5350
aF5.957700327673518e-05
aa(lp5351
S'plain'
p5352
aF0.0002978850163836759
aa(lp5353
S'porridg'
p5354
aF5.957700327673518e-05
aa(lp5355
S'trace'
p5356
aF5.957700327673518e-05
aa(lp5357
S'school'
p5358
aF0.0004170390229371463
aa(lp5359
S'270'
p5360
aF0.0
aa(lp5361
S'krawczyk'
p5362
aF0.0
aa(lp5363
S'295'
p5364
aF0.0
aa(lp5365
S'teleprompt'
p5366
aF5.957700327673518e-05
aa(lp5367
S'mater'
p5368
aF5.957700327673518e-05
aa(lp5369
S'dread'
p5370
aF0.00017873100983020553
aa(lp5371
S'priceless'
p5372
aF0.0
aa(lp5373
S'aggress'
p5374
aF5.957700327673518e-05
aa(lp5375
S'trite'
p5376
aF0.00017873100983020553
aa(lp5377
S'globetrotters-gener'
p5378
aF5.957700327673518e-05
aa(lp5379
S'scream'
p5380
aF0.00017873100983020553
aa(lp5381
S'pace'
p5382
aF0.00035746201966041106
aa(lp5383
S'slightest'
p5384
aF0.00017873100983020553
aa(lp5385
S'jazz'
p5386
aF0.0
aa(lp5387
S'includ'
p5388
aF0.00017873100983020553
aa(lp5389
S'chicaneri'
p5390
aF0.0
aa(lp5391
S'7th'
p5392
aF0.0
aa(lp5393
S'flimsier'
p5394
aF5.957700327673518e-05
aa(lp5395
S'amazingli'
p5396
aF5.957700327673518e-05
aa(lp5397
S'label'
p5398
aF5.957700327673518e-05
aa(lp5399
S'fuzzi'
p5400
aF5.957700327673518e-05
aa(lp5401
S'cradl'
p5402
aF0.0
aa(lp5403
S'expect'
p5404
aF0.0005957700327673518
aa(lp5405
S'portug'
p5406
aF0.0
aa(lp5407
S'bore'
p5408
aF0.0007745010425975573
aa(lp5409
S'bore'
p5410
aF0.0007745010425975573
aa(lp5411
S'nerd'
p5412
aF5.957700327673518e-05
aa(lp5413
S'unclear'
p5414
aF0.0
aa(lp5415
S'mercilessli'
p5416
aF0.0
aa(lp5417
S'border'
p5418
aF0.00011915400655347036
aa(lp5419
S'groupi'
p5420
aF0.0
aa(lp5421
S'surveil'
p5422
aF0.0
aa(lp5423
S'hole-ridden'
p5424
aF5.957700327673518e-05
aa(lp5425
S'brazil-lik'
p5426
aF5.957700327673518e-05
aa(lp5427
S'behav'
p5428
aF0.0
aa(lp5429
S'genocid'
p5430
aF0.0
aa(lp5431
S'miseri'
p5432
aF0.00011915400655347036
aa(lp5433
S'mind-numbingli'
p5434
aF5.957700327673518e-05
aa(lp5435
S'morbid'
p5436
aF0.00011915400655347036
aa(lp5437
S'spiritless'
p5438
aF5.957700327673518e-05
aa(lp5439
S'inclus'
p5440
aF0.0
aa(lp5441
S'child'
p5442
aF0.00017873100983020553
aa(lp5443
S'transgress'
p5444
aF5.957700327673518e-05
aa(lp5445
S'bleak'
p5446
aF0.00017873100983020553
aa(lp5447
S'unreward'
p5448
aF5.957700327673518e-05
aa(lp5449
S'rock'
p5450
aF0.00023830801310694073
aa(lp5451
S'potemkin'
p5452
aF0.0
aa(lp5453
S'shred'
p5454
aF5.957700327673518e-05
aa(lp5455
S'moulin'
p5456
aF0.0
aa(lp5457
S'irrever'
p5458
aF0.0
aa(lp5459
S'tyco'
p5460
aF0.0
aa(lp5461
S'bargain-bas'
p5462
aF5.957700327673518e-05
aa(lp5463
S'cheapo'
p5464
aF5.957700327673518e-05
aa(lp5465
S'contriv'
p5466
aF0.0005361930294906167
aa(lp5467
S'unfunni'
p5468
aF0.00047661602621388145
aa(lp5469
S'skip'
p5470
aF0.0002978850163836759
aa(lp5471
S'dreck'
p5472
aF0.00011915400655347036
aa(lp5473
S'delet'
p5474
aF0.00011915400655347036
aa(lp5475
S'virul'
p5476
aF0.00011915400655347036
aa(lp5477
S'lenienc'
p5478
aF0.0
aa(lp5479
S'played-out'
p5480
aF0.0
aa(lp5481
S'flatter'
p5482
aF5.957700327673518e-05
aa(lp5483
S'big-tim'
p5484
aF0.0
aa(lp5485
S'battlefield'
p5486
aF5.957700327673518e-05
aa(lp5487
S'attract'
p5488
aF0.0002978850163836759
aa(lp5489
S'cobbl'
p5490
aF0.00011915400655347036
aa(lp5491
S'sissako'
p5492
aF0.0
aa(lp5493
S'charact'
p5494
aF0.002323503127792672
aa(lp5495
S'lose'
p5496
aF0.0002978850163836759
aa(lp5497
S'well-balanc'
p5498
aF0.0
aa(lp5499
S'popul'
p5500
aF0.00011915400655347036
aa(lp5501
S'neck'
p5502
aF5.957700327673518e-05
aa(lp5503
S'bumper'
p5504
aF0.0
aa(lp5505
S'fragment'
p5506
aF0.00017873100983020553
aa(lp5507
S'mission'
p5508
aF5.957700327673518e-05
aa(lp5509
S'chiaroscuro'
p5510
aF0.0
aa(lp5511
S'melvil'
p5512
aF0.0
aa(lp5513
S'creation'
p5514
aF0.00011915400655347036
aa(lp5515
S'allegi'
p5516
aF5.957700327673518e-05
aa(lp5517
S'closet'
p5518
aF0.0
aa(lp5519
S'dizzi'
p5520
aF0.0
aa(lp5521
S'gone-to-se'
p5522
aF0.0
aa(lp5523
S'radic'
p5524
aF0.00011915400655347036
aa(lp5525
S'lifestyl'
p5526
aF5.957700327673518e-05
aa(lp5527
S'funer'
p5528
aF5.957700327673518e-05
aa(lp5529
S'rose'
p5530
aF5.957700327673518e-05
aa(lp5531
S'blast'
p5532
aF5.957700327673518e-05
aa(lp5533
S'wan'
p5534
aF5.957700327673518e-05
aa(lp5535
S'sleep-inducingli'
p5536
aF5.957700327673518e-05
aa(lp5537
S'drivel'
p5538
aF0.00011915400655347036
aa(lp5539
S'driver'
p5540
aF5.957700327673518e-05
aa(lp5541
S'drive'
p5542
aF0.00011915400655347036
aa(lp5543
S'wood'
p5544
aF5.957700327673518e-05
aa(lp5545
S'ground'
p5546
aF0.00011915400655347036
aa(lp5547
S'spectacl'
p5548
aF0.00023830801310694073
aa(lp5549
S'digit'
p5550
aF0.00017873100983020553
aa(lp5551
S'21st'
p5552
aF5.957700327673518e-05
aa(lp5553
S'candid'
p5554
aF5.957700327673518e-05
aa(lp5555
S'muddi'
p5556
aF5.957700327673518e-05
aa(lp5557
S'prologu'
p5558
aF5.957700327673518e-05
aa(lp5559
S'size'
p5560
aF0.0
aa(lp5561
S'robot'
p5562
aF5.957700327673518e-05
aa(lp5563
S'opposit'
p5564
aF0.00011915400655347036
aa(lp5565
S'shamelessli'
p5566
aF5.957700327673518e-05
aa(lp5567
S'resum'
p5568
aF5.957700327673518e-05
aa(lp5569
S'flatula'
p5570
aF0.0
aa(lp5571
S'anti-adult'
p5572
aF0.0
aa(lp5573
S'rohypnol'
p5574
aF0.0
aa(lp5575
S'gigant'
p5576
aF5.957700327673518e-05
aa(lp5577
S'doofu'
p5578
aF5.957700327673518e-05
aa(lp5579
S'preach'
p5580
aF5.957700327673518e-05
aa(lp5581
S'clot'
p5582
aF5.957700327673518e-05
aa(lp5583
S'silli'
p5584
aF0.00047661602621388145
aa(lp5585
S'character'
p5586
aF0.00017873100983020553
aa(lp5587
S'video'
p5588
aF0.0007149240393208221
aa(lp5589
S'amusedli'
p5590
aF0.0
aa(lp5591
S'threw'
p5592
aF5.957700327673518e-05
aa(lp5593
S'program'
p5594
aF5.957700327673518e-05
aa(lp5595
S'word'
p5596
aF0.0005361930294906167
aa(lp5597
S'campu'
p5598
aF5.957700327673518e-05
aa(lp5599
S'bridg'
p5600
aF5.957700327673518e-05
aa(lp5601
S'butthead'
p5602
aF0.0
aa(lp5603
S'cleaver'
p5604
aF0.0
aa(lp5605
S'fairlan'
p5606
aF0.0
aa(lp5607
S'rodan'
p5608
aF0.0
aa(lp5609
S'lascivious-mind'
p5610
aF0.0
aa(lp5611
S'trainspot'
p5612
aF0.0
aa(lp5613
S'smug'
p5614
aF0.00011915400655347036
aa(lp5615
S'70'
p5616
aF0.0
aa(lp5617
S'subtleti'
p5618
aF0.00017873100983020553
aa(lp5619
S'boozi'
p5620
aF5.957700327673518e-05
aa(lp5621
S'improvis'
p5622
aF0.00011915400655347036
aa(lp5623
S'triumphantli'
p5624
aF5.957700327673518e-05
aa(lp5625
S'self-express'
p5626
aF0.0
aa(lp5627
S'hip-hop'
p5628
aF0.00011915400655347036
aa(lp5629
S'distast'
p5630
aF0.00011915400655347036
aa(lp5631
S'wednesday'
p5632
aF5.957700327673518e-05
aa(lp5633
S'gondri'
p5634
aF5.957700327673518e-05
aa(lp5635
S'vat'
p5636
aF5.957700327673518e-05
aa(lp5637
S'gushi'
p5638
aF0.0
aa(lp5639
S'quasi-improvis'
p5640
aF5.957700327673518e-05
aa(lp5641
S'predispos'
p5642
aF0.0
aa(lp5643
S'torpedo'
p5644
aF5.957700327673518e-05
aa(lp5645
S'random'
p5646
aF0.00011915400655347036
aa(lp5647
S'eyebal'
p5648
aF0.0
aa(lp5649
S'credibl'
p5650
aF0.00023830801310694073
aa(lp5651
S'real-lif'
p5652
aF0.00011915400655347036
aa(lp5653
S'bigger'
p5654
aF5.957700327673518e-05
aa(lp5655
S'gratingli'
p5656
aF5.957700327673518e-05
aa(lp5657
S'primit'
p5658
aF5.957700327673518e-05
aa(lp5659
S'too-long'
p5660
aF0.0
aa(lp5661
S'mormon'
p5662
aF5.957700327673518e-05
aa(lp5663
S'rhame'
p5664
aF0.0
aa(lp5665
S'narr'
p5666
aF0.00047661602621388145
aa(lp5667
S'letdown'
p5668
aF0.00011915400655347036
aa(lp5669
S'wyman'
p5670
aF0.0
aa(lp5671
S'person'
p5672
aF0.0004170390229371463
aa(lp5673
S'fork'
p5674
aF0.0
aa(lp5675
S'build'
p5676
aF0.00017873100983020553
aa(lp5677
S'thousand-tim'
p5678
aF5.957700327673518e-05
aa(lp5679
S'fisher'
p5680
aF0.00017873100983020553
aa(lp5681
S'colgat'
p5682
aF0.0
aa(lp5683
S'elv'
p5684
aF5.957700327673518e-05
aa(lp5685
S'rejigg'
p5686
aF5.957700327673518e-05
aa(lp5687
S'failur'
p5688
aF0.0002978850163836759
aa(lp5689
S'crass'
p5690
aF0.00017873100983020553
aa(lp5691
S'prehistor'
p5692
aF0.0
aa(lp5693
S'exasper'
p5694
aF5.957700327673518e-05
aa(lp5695
S'gather'
p5696
aF0.0
aa(lp5697
S'motown'
p5698
aF0.0
aa(lp5699
S'phonc'
p5700
aF0.0
aa(lp5701
S'transplant'
p5702
aF0.0
aa(lp5703
S'radio'
p5704
aF0.0
aa(lp5705
S'acting-workshop'
p5706
aF0.0
aa(lp5707
S'radar'
p5708
aF5.957700327673518e-05
aa(lp5709
S'conspiratori'
p5710
aF0.0
aa(lp5711
S'bink'
p5712
aF0.0
aa(lp5713
S'literatur'
p5714
aF0.0
aa(lp5715
S'begin'
p5716
aF0.00047661602621388145
aa(lp5717
S'tron'
p5718
aF5.957700327673518e-05
aa(lp5719
S'wildean'
p5720
aF0.0
aa(lp5721
S'review'
p5722
aF0.00011915400655347036
aa(lp5723
S'even'
p5724
aF0.002561811140899613
aa(lp5725
S'lazi'
p5726
aF0.00023830801310694073
aa(lp5727
S'twinki'
p5728
aF0.0
aa(lp5729
S'dread'
p5730
aF0.00017873100983020553
aa(lp5731
S'nihilist'
p5732
aF0.0
aa(lp5733
S'straight'
p5734
aF0.0002978850163836759
aa(lp5735
S'disappoint'
p5736
aF0.00047661602621388145
aa(lp5737
S'hayseeds-v'
p5738
aF0.0
aa(lp5739
S'puberti'
p5740
aF5.957700327673518e-05
aa(lp5741
S'punish'
p5742
aF0.00011915400655347036
aa(lp5743
S'wide-smil'
p5744
aF0.0
aa(lp5745
S'phrase'
p5746
aF5.957700327673518e-05
aa(lp5747
S'incess'
p5748
aF0.00011915400655347036
aa(lp5749
S'luridli'
p5750
aF5.957700327673518e-05
aa(lp5751
S'rumin'
p5752
aF5.957700327673518e-05
aa(lp5753
S'piou'
p5754
aF0.0
aa(lp5755
S'kangaroo'
p5756
aF0.0
aa(lp5757
S'crossroad'
p5758
aF0.00011915400655347036
aa(lp5759
S'voyeur'
p5760
aF5.957700327673518e-05
aa(lp5761
S'cellophane-pop'
p5762
aF5.957700327673518e-05
aa(lp5763
S'summari'
p5764
aF5.957700327673518e-05
aa(lp5765
S'movie-industri'
p5766
aF0.0
aa(lp5767
S'gutter'
p5768
aF5.957700327673518e-05
aa(lp5769
S'window'
p5770
aF0.00017873100983020553
aa(lp5771
S'undertak'
p5772
aF0.0
aa(lp5773
S'sensat'
p5774
aF0.00011915400655347036
aa(lp5775
S'assum'
p5776
aF0.00023830801310694073
aa(lp5777
S'spiral'
p5778
aF5.957700327673518e-05
aa(lp5779
S'expens'
p5780
aF0.00011915400655347036
aa(lp5781
S'laid'
p5782
aF5.957700327673518e-05
aa(lp5783
S'smeari'
p5784
aF0.0
aa(lp5785
S'four-year-old'
p5786
aF0.0
aa(lp5787
S'daydream'
p5788
aF5.957700327673518e-05
aa(lp5789
S'lake'
p5790
aF5.957700327673518e-05
aa(lp5791
S'unpleas'
p5792
aF0.00035746201966041106
aa(lp5793
S'linklat'
p5794
aF0.0
aa(lp5795
S'3\\/4th'
p5796
aF5.957700327673518e-05
aa(lp5797
S'lame'
p5798
aF0.00035746201966041106
aa(lp5799
S'friggin'
p5800
aF5.957700327673518e-05
aa(lp5801
S'irrepar'
p5802
aF5.957700327673518e-05
aa(lp5803
S'awkward'
p5804
aF0.00023830801310694073
aa(lp5805
S'spiral'
p5806
aF5.957700327673518e-05
aa(lp5807
S'irrepar'
p5808
aF5.957700327673518e-05
aa(lp5809
S'tree'
p5810
aF5.957700327673518e-05
aa(lp5811
S'unfairli'
p5812
aF0.0
aa(lp5813
S'budget'
p5814
aF0.00017873100983020553
aa(lp5815
S'clobber'
p5816
aF0.0
aa(lp5817
S'antisept'
p5818
aF0.0
aa(lp5819
S'lack'
p5820
aF0.0013702710753649091
aa(lp5821
S'talent'
p5822
aF0.000655347036044087
aa(lp5823
S'slog'
p5824
aF5.957700327673518e-05
aa(lp5825
S'austen'
p5826
aF0.0
aa(lp5827
S'classroom'
p5828
aF5.957700327673518e-05
aa(lp5829
S'ladi'
p5830
aF0.00011915400655347036
aa(lp5831
S'exhaustingli'
p5832
aF5.957700327673518e-05
aa(lp5833
S'copycat'
p5834
aF5.957700327673518e-05
aa(lp5835
S'kazan'
p5836
aF5.957700327673518e-05
aa(lp5837
S'truck'
p5838
aF5.957700327673518e-05
aa(lp5839
S'purpos'
p5840
aF0.00047661602621388145
aa(lp5841
S'grey'
p5842
aF5.957700327673518e-05
aa(lp5843
S'muster'
p5844
aF5.957700327673518e-05
aa(lp5845
S'suffer'
p5846
aF0.0005957700327673518
aa(lp5847
S'sylvi'
p5848
aF0.0
aa(lp5849
S'lioniz'
p5850
aF0.0
aa(lp5851
S'paradigm'
p5852
aF0.0
aa(lp5853
S'self-consci'
p5854
aF0.00017873100983020553
aa(lp5855
S'hors'
p5856
aF0.00011915400655347036
aa(lp5857
S'name-cal'
p5858
aF0.0
aa(lp5859
S'lumber'
p5860
aF5.957700327673518e-05
aa(lp5861
S'assassin'
p5862
aF5.957700327673518e-05
aa(lp5863
S'charisma'
p5864
aF0.00017873100983020553
aa(lp5865
S'deprav'
p5866
aF0.00017873100983020553
aa(lp5867
S'bond'
p5868
aF0.00017873100983020553
aa(lp5869
S'decis'
p5870
aF5.957700327673518e-05
aa(lp5871
S'enter'
p5872
aF0.00017873100983020553
aa(lp5873
S'aimless'
p5874
aF5.957700327673518e-05
aa(lp5875
S'write'
p5876
aF0.00035746201966041106
aa(lp5877
S'songbird'
p5878
aF5.957700327673518e-05
aa(lp5879
S'bmw'
p5880
aF5.957700327673518e-05
aa(lp5881
S'sign'
p5882
aF0.0004170390229371463
aa(lp5883
S'superfici'
p5884
aF0.0002978850163836759
aa(lp5885
S'rat-a-tat'
p5886
aF0.0
aa(lp5887
S'carvey'
p5888
aF0.00023830801310694073
aa(lp5889
S'wist'
p5890
aF5.957700327673518e-05
aa(lp5891
S'garden'
p5892
aF5.957700327673518e-05
aa(lp5893
S'pick'
p5894
aF0.00017873100983020553
aa(lp5895
S'mishmash'
p5896
aF5.957700327673518e-05
aa(lp5897
S'liar'
p5898
aF5.957700327673518e-05
aa(lp5899
S'disdain'
p5900
aF5.957700327673518e-05
aa(lp5901
S'surfeit'
p5902
aF5.957700327673518e-05
aa(lp5903
S'topic'
p5904
aF0.00011915400655347036
aa(lp5905
S'lika'
p5906
aF0.0
aa(lp5907
S'rumbl'
p5908
aF5.957700327673518e-05
aa(lp5909
S'x-file'
p5910
aF5.957700327673518e-05
aa(lp5911
S'word'
p5912
aF0.0005361930294906167
aa(lp5913
S'limp'
p5914
aF0.00011915400655347036
aa(lp5915
S'artistri'
p5916
aF5.957700327673518e-05
aa(lp5917
S'dadaist'
p5918
aF0.0
aa(lp5919
S'quadrangl'
p5920
aF0.0
aa(lp5921
S'desper'
p5922
aF0.00023830801310694073
aa(lp5923
S'amass'
p5924
aF0.0
aa(lp5925
S'noisi'
p5926
aF5.957700327673518e-05
aa(lp5927
S'nois'
p5928
aF0.00011915400655347036
aa(lp5929
S'inhuman'
p5930
aF5.957700327673518e-05
aa(lp5931
S'bibbidy-bobbidi-bland'
p5932
aF5.957700327673518e-05
aa(lp5933
S'cloak'
p5934
aF5.957700327673518e-05
aa(lp5935
S'endeavor'
p5936
aF0.00017873100983020553
aa(lp5937
S'\\/crime'
p5938
aF0.0
aa(lp5939
S'pender'
p5940
aF5.957700327673518e-05
aa(lp5941
S'pile-up'
p5942
aF5.957700327673518e-05
aa(lp5943
S'versac'
p5944
aF0.0
aa(lp5945
S'allow'
p5946
aF0.0002978850163836759
aa(lp5947
S'bomb'
p5948
aF0.00011915400655347036
aa(lp5949
S'choreograph'
p5950
aF5.957700327673518e-05
aa(lp5951
S'set'
p5952
aF0.0008936550491510277
aa(lp5953
S'describ'
p5954
aF0.00017873100983020553
aa(lp5955
S'intersect'
p5956
aF0.0
aa(lp5957
S'savori'
p5958
aF0.0
aa(lp5959
S'niftiest'
p5960
aF0.0
aa(lp5961
S'email'
p5962
aF5.957700327673518e-05
aa(lp5963
S'worst'
p5964
aF0.0010723860589812334
aa(lp5965
S'rambl'
p5966
aF0.00017873100983020553
aa(lp5967
S'wors'
p5968
aF0.0005361930294906167
aa(lp5969
S'estrogen-fre'
p5970
aF0.0
aa(lp5971
S'whenev'
p5972
aF0.00011915400655347036
aa(lp5973
S'third-person'
p5974
aF0.0
aa(lp5975
S'image-mong'
p5976
aF5.957700327673518e-05
aa(lp5977
S'clam'
p5978
aF0.0
aa(lp5979
S'lauric'
p5980
aF5.957700327673518e-05
aa(lp5981
S'under-inspir'
p5982
aF5.957700327673518e-05
aa(lp5983
S'out-bad-act'
p5984
aF5.957700327673518e-05
aa(lp5985
S'complet'
p5986
aF0.0008340780458742926
aa(lp5987
S'valiantli'
p5988
aF5.957700327673518e-05
aa(lp5989
S'virtuos'
p5990
aF5.957700327673518e-05
aa(lp5991
S'odorifer'
p5992
aF5.957700327673518e-05
aa(lp5993
S'phoney-feel'
p5994
aF5.957700327673518e-05
aa(lp5995
S'laugther'
p5996
aF0.0
aa(lp5997
S'dumb'
p5998
aF0.0004170390229371463
aa(lp5999
S'halfway'
p6000
aF0.00017873100983020553
aa(lp6001
S'shootout'
p6002
aF5.957700327673518e-05
aa(lp6003
S'cave'
p6004
aF0.0
aa(lp6005
S'orwel'
p6006
aF5.957700327673518e-05
aa(lp6007
S'behaviour'
p6008
aF0.0
aa(lp6009
S'reek'
p6010
aF0.00011915400655347036
aa(lp6011
S'choppi'
p6012
aF0.00017873100983020553
aa(lp6013
S'rubbish'
p6014
aF5.957700327673518e-05
aa(lp6015
S'entri'
p6016
aF5.957700327673518e-05
aa(lp6017
S'contradict'
p6018
aF5.957700327673518e-05
aa(lp6019
S'sloppi'
p6020
aF0.0002978850163836759
aa(lp6021
S'raindrop'
p6022
aF5.957700327673518e-05
aa(lp6023
S'frustrat'
p6024
aF0.00017873100983020553
aa(lp6025
S'jar-jar'
p6026
aF0.0
aa(lp6027
S'pop-induc'
p6028
aF0.0
aa(lp6029
S'burn'
p6030
aF0.00017873100983020553
aa(lp6031
S'mana'
p6032
aF0.0
aa(lp6033
S'surest'
p6034
aF0.0
aa(lp6035
S'visibl'
p6036
aF0.00011915400655347036
aa(lp6037
S'calibr'
p6038
aF5.957700327673518e-05
aa(lp6039
S'graduat'
p6040
aF5.957700327673518e-05
aa(lp6041
S'unsavori'
p6042
aF0.0
aa(lp6043
S'sign'
p6044
aF0.0004170390229371463
aa(lp6045
S'built-in'
p6046
aF0.0
aa(lp6047
S'strangl'
p6048
aF0.0
aa(lp6049
S'nuclear'
p6050
aF5.957700327673518e-05
aa(lp6051
S'mechan'
p6052
aF0.00011915400655347036
aa(lp6053
S'joylessli'
p6054
aF0.0
aa(lp6055
S'proof'
p6056
aF5.957700327673518e-05
aa(lp6057
S'stereotyp'
p6058
aF0.00023830801310694073
aa(lp6059
S'icili'
p6060
aF0.0
aa(lp6061
S'enter'
p6062
aF0.00017873100983020553
aa(lp6063
S'family-film'
p6064
aF0.0
aa(lp6065
S'matern'
p6066
aF0.0
aa(lp6067
S'depress'
p6068
aF0.0002978850163836759
aa(lp6069
S'stereotyp'
p6070
aF0.00023830801310694073
aa(lp6071
S'sure'
p6072
aF0.000655347036044087
aa(lp6073
S'gimmick'
p6074
aF5.957700327673518e-05
aa(lp6075
S'roller'
p6076
aF0.0
aa(lp6077
S'purpos'
p6078
aF0.00047661602621388145
aa(lp6079
S'yourselv'
p6080
aF0.0
aa(lp6081
S'sneak'
p6082
aF5.957700327673518e-05
aa(lp6083
S'sneaki'
p6084
aF5.957700327673518e-05
aa(lp6085
S'head'
p6086
aF0.00047661602621388145
aa(lp6087
S'vacuou'
p6088
aF0.0
aa(lp6089
S'scruffi'
p6090
aF5.957700327673518e-05
aa(lp6091
S'bump'
p6092
aF5.957700327673518e-05
aa(lp6093
S'step-print'
p6094
aF5.957700327673518e-05
aa(lp6095
S'crass'
p6096
aF0.00017873100983020553
aa(lp6097
S'crash'
p6098
aF5.957700327673518e-05
aa(lp6099
S'incompet'
p6100
aF0.00011915400655347036
aa(lp6101
S'burn'
p6102
aF0.00017873100983020553
aa(lp6103
S'kidnapp'
p6104
aF0.0
aa(lp6105
S'frustratingli'
p6106
aF0.00011915400655347036
aa(lp6107
S'recess'
p6108
aF0.0
aa(lp6109
S'limpli'
p6110
aF5.957700327673518e-05
aa(lp6111
S'soporif'
p6112
aF0.0
aa(lp6113
S'bender'
p6114
aF5.957700327673518e-05
aa(lp6115
S'bibl'
p6116
aF5.957700327673518e-05
aa(lp6117
S'movi'
p6118
aF0.01000893655049151
aa(lp6119
S'begin'
p6120
aF0.00047661602621388145
aa(lp6121
S'sham'
p6122
aF5.957700327673518e-05
aa(lp6123
S'fail'
p6124
aF0.0008340780458742926
aa(lp6125
S'project'
p6126
aF0.00035746201966041106
aa(lp6127
S'rais'
p6128
aF0.00017873100983020553
aa(lp6129
S'plympton'
p6130
aF5.957700327673518e-05
aa(lp6131
S'picture-perfect'
p6132
aF5.957700327673518e-05
aa(lp6133
S'twohi'
p6134
aF0.0
aa(lp6135
S'tunney'
p6136
aF5.957700327673518e-05
aa(lp6137
S'stellar'
p6138
aF0.0
aa(lp6139
S'studio'
p6140
aF0.0002978850163836759
aa(lp6141
S'impost'
p6142
aF0.0
aa(lp6143
S'88-minut'
p6144
aF0.00011915400655347036
aa(lp6145
S'pluto'
p6146
aF0.0
aa(lp6147
S'electrocut'
p6148
aF0.0
aa(lp6149
S'camouflag'
p6150
aF0.00017873100983020553
aa(lp6151
S'neophyt'
p6152
aF0.0
aa(lp6153
S'ill-construct'
p6154
aF0.0
aa(lp6155
S'inhal'
p6156
aF5.957700327673518e-05
aa(lp6157
S'misbegotten'
p6158
aF5.957700327673518e-05
aa(lp6159
S'restat'
p6160
aF5.957700327673518e-05
aa(lp6161
S'crawl'
p6162
aF5.957700327673518e-05
aa(lp6163
S'time'
p6164
aF0.002025618111408996
aa(lp6165
S'earth'
p6166
aF0.00011915400655347036
aa(lp6167
S'miscalcul'
p6168
aF0.00011915400655347036
aa(lp6169
S'attribut'
p6170
aF5.957700327673518e-05
aa(lp6171
S'overpow'
p6172
aF0.0
aa(lp6173
S'spent'
p6174
aF0.00023830801310694073
aa(lp6175
S'kao'
p6176
aF5.957700327673518e-05
aa(lp6177
S'denlopp'
p6178
aF0.0
aa(lp6179
S'umpteenth'
p6180
aF0.0
aa(lp6181
S'rush'
p6182
aF0.00017873100983020553
aa(lp6183
S'reason'
p6184
aF0.0005957700327673518
aa(lp6185
S'person'
p6186
aF0.0004170390229371463
aa(lp6187
S'transgress'
p6188
aF5.957700327673518e-05
aa(lp6189
S'bloat'
p6190
aF5.957700327673518e-05
aa(lp6191
S'hustler'
p6192
aF0.0
aa(lp6193
S'muddl'
p6194
aF0.00035746201966041106
aa(lp6195
S'relic'
p6196
aF5.957700327673518e-05
aa(lp6197
S'scream'
p6198
aF0.00017873100983020553
aa(lp6199
S'slovenli'
p6200
aF5.957700327673518e-05
aa(lp6201
S'dealer'
p6202
aF5.957700327673518e-05
aa(lp6203
S'garish'
p6204
aF5.957700327673518e-05
aa(lp6205
S'brook'
p6206
aF5.957700327673518e-05
aa(lp6207
S'randolph'
p6208
aF0.0
aa(lp6209
S're-fri'
p6210
aF0.0
aa(lp6211
S'rumin'
p6212
aF5.957700327673518e-05
aa(lp6213
S'plot'
p6214
aF0.0016681560917485851
aa(lp6215
S'8th'
p6216
aF5.957700327673518e-05
aa(lp6217
S'dismal'
p6218
aF5.957700327673518e-05
aa(lp6219
S'crisper'
p6220
aF0.0
aa(lp6221
S'virtuos'
p6222
aF5.957700327673518e-05
aa(lp6223
S'movement'
p6224
aF0.00011915400655347036
aa(lp6225
S'textur'
p6226
aF5.957700327673518e-05
aa(lp6227
S'deadli'
p6228
aF0.00017873100983020553
aa(lp6229
S'double-barrel'
p6230
aF0.0
aa(lp6231
S'lunaci'
p6232
aF5.957700327673518e-05
aa(lp6233
S'appal'
p6234
aF0.00017873100983020553
aa(lp6235
S'messian'
p6236
aF0.0
aa(lp6237
S'disguis'
p6238
aF0.00035746201966041106
aa(lp6239
S'pickup'
p6240
aF0.00011915400655347036
aa(lp6241
S'popul'
p6242
aF0.00011915400655347036
aa(lp6243
S'cumul'
p6244
aF0.00011915400655347036
aa(lp6245
S'popul'
p6246
aF0.00011915400655347036
aa(lp6247
S'undercut'
p6248
aF0.00011915400655347036
aa(lp6249
S'cardboard'
p6250
aF5.957700327673518e-05
aa(lp6251
S'note'
p6252
aF0.00017873100983020553
aa(lp6253
S'headli'
p6254
aF0.0
aa(lp6255
S'nose'
p6256
aF5.957700327673518e-05
aa(lp6257
S'fixat'
p6258
aF5.957700327673518e-05
aa(lp6259
S'sytl'
p6260
aF0.0
aa(lp6261
S'odd-coupl'
p6262
aF5.957700327673518e-05
aa(lp6263
S'fisher'
p6264
aF0.00017873100983020553
aa(lp6265
S'slough'
p6266
aF5.957700327673518e-05
aa(lp6267
S'techniqu'
p6268
aF5.957700327673518e-05
aa(lp6269
S'scar'
p6270
aF5.957700327673518e-05
aa(lp6271
S'sub-mus'
p6272
aF0.0
aa(lp6273
S'advert'
p6274
aF0.0
aa(lp6275
S'shakesperean'
p6276
aF5.957700327673518e-05
aa(lp6277
S'pick'
p6278
aF0.00017873100983020553
aa(lp6279
S'stick'
p6280
aF0.0002978850163836759
aa(lp6281
S'boil'
p6282
aF5.957700327673518e-05
aa(lp6283
S'horrifi'
p6284
aF0.00011915400655347036
aa(lp6285
S'beg'
p6286
aF0.00011915400655347036
aa(lp6287
S'bond'
p6288
aF0.00017873100983020553
aa(lp6289
S'snooz'
p6290
aF0.00011915400655347036
aa(lp6291
S'tactic'
p6292
aF5.957700327673518e-05
aa(lp6293
S'screeching-met'
p6294
aF5.957700327673518e-05
aa(lp6295
S'bungl'
p6296
aF5.957700327673518e-05
aa(lp6297
S'scam'
p6298
aF0.0
aa(lp6299
S'rang'
p6300
aF5.957700327673518e-05
aa(lp6301
S'full-front'
p6302
aF5.957700327673518e-05
aa(lp6303
S'hip'
p6304
aF0.00023830801310694073
aa(lp6305
S'rest'
p6306
aF0.0002978850163836759
aa(lp6307
S'tequila'
p6308
aF5.957700327673518e-05
aa(lp6309
S'script'
p6310
aF0.0013702710753649091
aa(lp6311
S'blazingli'
p6312
aF0.0
aa(lp6313
S'snag'
p6314
aF0.0
aa(lp6315
S'redund'
p6316
aF0.00017873100983020553
aa(lp6317
S'island'
p6318
aF5.957700327673518e-05
aa(lp6319
S'dyslexia'
p6320
aF5.957700327673518e-05
aa(lp6321
S'turkey'
p6322
aF5.957700327673518e-05
aa(lp6323
S'total'
p6324
aF0.0002978850163836759
aa(lp6325
S'docu-drama'
p6326
aF0.0
aa(lp6327
S'unnecessari'
p6328
aF0.0004170390229371463
aa(lp6329
S'disguis'
p6330
aF0.00035746201966041106
aa(lp6331
S'sane'
p6332
aF5.957700327673518e-05
aa(lp6333
S'suck'
p6334
aF0.00011915400655347036
aa(lp6335
S'convert'
p6336
aF5.957700327673518e-05
aa(lp6337
S'high'
p6338
aF0.0004170390229371463
aa(lp6339
S'ugly-look'
p6340
aF0.0
aa(lp6341
S'carrey'
p6342
aF5.957700327673518e-05
aa(lp6343
S'shoot'
p6344
aF0.00023830801310694073
aa(lp6345
S'129-minut'
p6346
aF0.0
aa(lp6347
S'backseat'
p6348
aF5.957700327673518e-05
aa(lp6349
S'servitud'
p6350
aF5.957700327673518e-05
aa(lp6351
S'sake'
p6352
aF0.00011915400655347036
aa(lp6353
S'evas'
p6354
aF0.0
aa(lp6355
S'happen'
p6356
aF0.00035746201966041106
aa(lp6357
S'abandon'
p6358
aF0.00017873100983020553
aa(lp6359
S'psychot'
p6360
aF0.0
aa(lp6361
S'twitchi'
p6362
aF5.957700327673518e-05
aa(lp6363
S'not-so-funni'
p6364
aF5.957700327673518e-05
aa(lp6365
S'fling'
p6366
aF5.957700327673518e-05
aa(lp6367
S'juiceless'
p6368
aF5.957700327673518e-05
aa(lp6369
S'hurri'
p6370
aF5.957700327673518e-05
aa(lp6371
S'sophomor'
p6372
aF0.00011915400655347036
aa(lp6373
S'dialog'
p6374
aF5.957700327673518e-05
aa(lp6375
S'chong'
p6376
aF0.0
aa(lp6377
S'themselv'
p6378
aF0.0002978850163836759
aa(lp6379
S'graceless'
p6380
aF5.957700327673518e-05
aa(lp6381
S'multitud'
p6382
aF0.0
aa(lp6383
S'dolphin-gasm'
p6384
aF0.0
aa(lp6385
S'boho'
p6386
aF5.957700327673518e-05
aa(lp6387
S'dictator-madman'
p6388
aF5.957700327673518e-05
aa(lp6389
S'malik'
p6390
aF5.957700327673518e-05
aa(lp6391
S'feroc'
p6392
aF5.957700327673518e-05
aa(lp6393
S'cronenberg'
p6394
aF0.0
aa(lp6395
S'press'
p6396
aF0.00011915400655347036
aa(lp6397
S'charact'
p6398
aF0.002323503127792672
aa(lp6399
S'time'
p6400
aF0.002025618111408996
aa(lp6401
S'overcook'
p6402
aF0.0
aa(lp6403
S'care'
p6404
aF0.0007745010425975573
aa(lp6405
S'aragorn'
p6406
aF0.0
aa(lp6407
S'shockingli'
p6408
aF5.957700327673518e-05
aa(lp6409
S'techno-sex'
p6410
aF0.0
aa(lp6411
S'wood'
p6412
aF5.957700327673518e-05
aa(lp6413
S'assum'
p6414
aF0.00023830801310694073
aa(lp6415
S'zemecki'
p6416
aF0.0
aa(lp6417
S'midwest'
p6418
aF0.0
aa(lp6419
S'\\/co-writ'
p6420
aF0.0
aa(lp6421
S'woefulli'
p6422
aF5.957700327673518e-05
aa(lp6423
S'bear'
p6424
aF0.00035746201966041106
aa(lp6425
S'jargon'
p6426
aF0.0
aa(lp6427
S'regist'
p6428
aF0.00011915400655347036
aa(lp6429
S'dialogu'
p6430
aF0.0007149240393208221
aa(lp6431
S'mytholog'
p6432
aF5.957700327673518e-05
aa(lp6433
S'stevenon'
p6434
aF0.0
aa(lp6435
S'consol'
p6436
aF0.00011915400655347036
aa(lp6437
S'redeem'
p6438
aF0.00011915400655347036
aa(lp6439
S'lesson'
p6440
aF0.00017873100983020553
aa(lp6441
S'christma'
p6442
aF0.00011915400655347036
aa(lp6443
S'scenic'
p6444
aF5.957700327673518e-05
aa(lp6445
S'scent'
p6446
aF5.957700327673518e-05
aa(lp6447
S'enter'
p6448
aF0.00017873100983020553
aa(lp6449
S'dispel'
p6450
aF5.957700327673518e-05
aa(lp6451
S'goldmemb'
p6452
aF5.957700327673518e-05
aa(lp6453
S'uncanni'
p6454
aF5.957700327673518e-05
aa(lp6455
S'exit'
p6456
aF5.957700327673518e-05
aa(lp6457
S'silberstein'
p6458
aF0.0
aa(lp6459
S'doltish'
p6460
aF5.957700327673518e-05
aa(lp6461
S'schmaltzi'
p6462
aF0.00011915400655347036
aa(lp6463
S'fire'
p6464
aF0.0002978850163836759
aa(lp6465
S'hippest'
p6466
aF0.0
aa(lp6467
S'self-consci'
p6468
aF0.00017873100983020553
aa(lp6469
S'write'
p6470
aF0.00035746201966041106
aa(lp6471
S'wong'
p6472
aF0.0
aa(lp6473
S'murphi'
p6474
aF0.00017873100983020553
aa(lp6475
S'static'
p6476
aF0.00017873100983020553
aa(lp6477
S'tonal'
p6478
aF5.957700327673518e-05
aa(lp6479
S'lengthi'
p6480
aF5.957700327673518e-05
aa(lp6481
S'lightest'
p6482
aF0.0
aa(lp6483
S'licens'
p6484
aF5.957700327673518e-05
aa(lp6485
S'expect'
p6486
aF0.0005957700327673518
aa(lp6487
S'movi'
p6488
aF0.01000893655049151
aa(lp6489
S'uninterest'
p6490
aF0.00011915400655347036
aa(lp6491
S'regular'
p6492
aF0.0
aa(lp6493
S'firework'
p6494
aF5.957700327673518e-05
aa(lp6495
S'squabbl'
p6496
aF5.957700327673518e-05
aa(lp6497
S'person'
p6498
aF0.0004170390229371463
aa(lp6499
S'cameo'
p6500
aF5.957700327673518e-05
aa(lp6501
S'heel'
p6502
aF0.0
aa(lp6503
S'inappropri'
p6504
aF0.00011915400655347036
aa(lp6505
S'funer'
p6506
aF5.957700327673518e-05
aa(lp6507
S'skunk'
p6508
aF5.957700327673518e-05
aa(lp6509
S'uncertain'
p6510
aF5.957700327673518e-05
aa(lp6511
S'bogu'
p6512
aF5.957700327673518e-05
aa(lp6513
S'semi'
p6514
aF5.957700327673518e-05
aa(lp6515
S'allow'
p6516
aF0.0002978850163836759
aa(lp6517
S'sent'
p6518
aF5.957700327673518e-05
aa(lp6519
S'sideshow'
p6520
aF0.0
aa(lp6521
S'disappoint'
p6522
aF0.00047661602621388145
aa(lp6523
S'penetr'
p6524
aF5.957700327673518e-05
aa(lp6525
S'devoid'
p6526
aF0.0005361930294906167
aa(lp6527
S'x-men'
p6528
aF0.0
aa(lp6529
S'libido'
p6530
aF0.0
aa(lp6531
S'starri'
p6532
aF0.0
aa(lp6533
S'gun'
p6534
aF0.00017873100983020553
aa(lp6535
S'evapor'
p6536
aF0.0
aa(lp6537
S'loung'
p6538
aF0.0
aa(lp6539
S'overload'
p6540
aF5.957700327673518e-05
aa(lp6541
S'dissect'
p6542
aF0.0
aa(lp6543
S'soror'
p6544
aF0.00011915400655347036
aa(lp6545
S'encumb'
p6546
aF5.957700327673518e-05
aa(lp6547
S'garbu'
p6548
aF0.0
aa(lp6549
S'stunningli'
p6550
aF5.957700327673518e-05
aa(lp6551
S'phantasm'
p6552
aF0.0
aa(lp6553
S'cheech'
p6554
aF0.0
aa(lp6555
S'dash'
p6556
aF5.957700327673518e-05
aa(lp6557
S'muzak'
p6558
aF5.957700327673518e-05
aa(lp6559
S'theatr'
p6560
aF0.00023830801310694073
aa(lp6561
S'middle-of-the-road'
p6562
aF5.957700327673518e-05
aa(lp6563
S'spacey'
p6564
aF0.0
aa(lp6565
S'fahrenheit'
p6566
aF5.957700327673518e-05
aa(lp6567
S'ludicr'
p6568
aF0.0002978850163836759
aa(lp6569
S'unconcern'
p6570
aF0.0
aa(lp6571
S'tootsi'
p6572
aF5.957700327673518e-05
aa(lp6573
S'audienc'
p6574
aF0.0013702710753649091
aa(lp6575
S'knight'
p6576
aF0.0
aa(lp6577
S'one-sided'
p6578
aF0.0
aa(lp6579
S'pretent'
p6580
aF0.0
aa(lp6581
S'whoosh'
p6582
aF0.0
aa(lp6583
S'decis'
p6584
aF5.957700327673518e-05
aa(lp6585
S'buckaroo'
p6586
aF0.0
aa.